Component: ARM Compiler 5.06 update 5 (build 528) Tool: armlink [4d35e2]

==============================================================================

Section Cross References

    sx1276.o(i.GetFskBandwidthRegValue) refers to sx1276.o(.constdata) for FskBandwidths
    sx1276.o(i.RxChainCalibration) refers to sx1276.o(i.SX1276Read) for SX1276Read
    sx1276.o(i.RxChainCalibration) refers to sx1276.o(i.SX1276Write) for SX1276Write
    sx1276.o(i.RxChainCalibration) refers to sx1276.o(i.SX1276SetChannel) for SX1276SetChannel
    sx1276.o(i.SX1276BoardInit) refers to sx1276.o(.data) for LoRaBoardCallbacks
    sx1276.o(i.SX1276GetRadioWakeUpTime) refers to sx1276.o(.data) for LoRaBoardCallbacks
    sx1276.o(i.SX1276GetStatus) refers to sx1276.o(.bss) for SX1276
    sx1276.o(i.SX1276GetTimeOnAir) refers to dfltui.o(.text) for __aeabi_ui2d
    sx1276.o(i.SX1276GetTimeOnAir) refers to sx1276.o(i.SX1276Read) for SX1276Read
    sx1276.o(i.SX1276GetTimeOnAir) refers to dflti.o(.text) for __aeabi_i2d
    sx1276.o(i.SX1276GetTimeOnAir) refers to dadd.o(.text) for __aeabi_dadd
    sx1276.o(i.SX1276GetTimeOnAir) refers to dmul.o(.text) for __aeabi_dmul
    sx1276.o(i.SX1276GetTimeOnAir) refers to ddiv.o(.text) for __aeabi_ddiv
    sx1276.o(i.SX1276GetTimeOnAir) refers to round.o(i.round) for round
    sx1276.o(i.SX1276GetTimeOnAir) refers to dfixui.o(.text) for __aeabi_d2uiz
    sx1276.o(i.SX1276GetTimeOnAir) refers to ceil.o(i.ceil) for ceil
    sx1276.o(i.SX1276GetTimeOnAir) refers to cdrcmple.o(.text) for __aeabi_cdrcmple
    sx1276.o(i.SX1276GetTimeOnAir) refers to floor.o(i.floor) for floor
    sx1276.o(i.SX1276GetTimeOnAir) refers to sx1276.o(.bss) for SX1276
    sx1276.o(i.SX1276Init) refers to timeserver.o(i.TimerInit) for TimerInit
    sx1276.o(i.SX1276Init) refers to sx1276.o(i.SX1276Reset) for SX1276Reset
    sx1276.o(i.SX1276Init) refers to sx1276.o(i.RxChainCalibration) for RxChainCalibration
    sx1276.o(i.SX1276Init) refers to sx1276.o(i.SX1276SetOpMode) for SX1276SetOpMode
    sx1276.o(i.SX1276Init) refers to sx1276.o(i.SX1276SetModem) for SX1276SetModem
    sx1276.o(i.SX1276Init) refers to sx1276.o(i.SX1276Write) for SX1276Write
    sx1276.o(i.SX1276Init) refers to sx1276.o(.data) for RadioEvents
    sx1276.o(i.SX1276Init) refers to sx1276.o(i.SX1276OnTimeoutIrq) for SX1276OnTimeoutIrq
    sx1276.o(i.SX1276Init) refers to sx1276.o(.bss) for TxTimeoutTimer
    sx1276.o(i.SX1276Init) refers to sx1276.o(.constdata) for RadioRegsInit
    sx1276.o(i.SX1276IsChannelFree) refers to sx1276.o(i.SX1276SetModem) for SX1276SetModem
    sx1276.o(i.SX1276IsChannelFree) refers to sx1276.o(i.SX1276SetChannel) for SX1276SetChannel
    sx1276.o(i.SX1276IsChannelFree) refers to sx1276.o(i.SX1276SetOpMode) for SX1276SetOpMode
    sx1276.o(i.SX1276IsChannelFree) refers to delay.o(i.DelayMs) for DelayMs
    sx1276.o(i.SX1276IsChannelFree) refers to timeserver.o(i.TimerGetCurrentTime) for TimerGetCurrentTime
    sx1276.o(i.SX1276IsChannelFree) refers to sx1276.o(i.SX1276ReadRssi) for SX1276ReadRssi
    sx1276.o(i.SX1276IsChannelFree) refers to timeserver.o(i.TimerGetElapsedTime) for TimerGetElapsedTime
    sx1276.o(i.SX1276IsChannelFree) refers to sx1276.o(i.SX1276SetSleep) for SX1276SetSleep
    sx1276.o(i.SX1276OnDio0Irq) refers to sx1276.o(i.SX1276Read) for SX1276Read
    sx1276.o(i.SX1276OnDio0Irq) refers to sx1276.o(i.SX1276Write) for SX1276Write
    sx1276.o(i.SX1276OnDio0Irq) refers to timeserver.o(i.TimerStop) for TimerStop
    sx1276.o(i.SX1276OnDio0Irq) refers to timeserver.o(i.TimerStart) for TimerStart
    sx1276.o(i.SX1276OnDio0Irq) refers to sx1276.o(i.SX1276ReadFifo) for SX1276ReadFifo
    sx1276.o(i.SX1276OnDio0Irq) refers to vcom.o(i.vcom_Send) for vcom_Send
    sx1276.o(i.SX1276OnDio0Irq) refers to sx1276.o(.bss) for SX1276
    sx1276.o(i.SX1276OnDio0Irq) refers to sx1276.o(.data) for RadioEvents
    sx1276.o(i.SX1276OnDio1Irq) refers to sx1276.o(i.SX1276ReadFifo) for SX1276ReadFifo
    sx1276.o(i.SX1276OnDio1Irq) refers to sx1276.o(i.SX1276Read) for SX1276Read
    sx1276.o(i.SX1276OnDio1Irq) refers to timeserver.o(i.TimerStop) for TimerStop
    sx1276.o(i.SX1276OnDio1Irq) refers to sx1276.o(i.SX1276Write) for SX1276Write
    sx1276.o(i.SX1276OnDio1Irq) refers to vcom.o(i.vcom_Send) for vcom_Send
    sx1276.o(i.SX1276OnDio1Irq) refers to sx1276.o(i.SX1276WriteFifo) for SX1276WriteFifo
    sx1276.o(i.SX1276OnDio1Irq) refers to sx1276.o(.bss) for SX1276
    sx1276.o(i.SX1276OnDio1Irq) refers to sx1276.o(.data) for RadioEvents
    sx1276.o(i.SX1276OnDio2Irq) refers to timeserver.o(i.TimerStop) for TimerStop
    sx1276.o(i.SX1276OnDio2Irq) refers to sx1276.o(i.SX1276Read) for SX1276Read
    sx1276.o(i.SX1276OnDio2Irq) refers to sx1276.o(i.SX1276Write) for SX1276Write
    sx1276.o(i.SX1276OnDio2Irq) refers to sx1276.o(.bss) for SX1276
    sx1276.o(i.SX1276OnDio2Irq) refers to sx1276.o(.data) for RadioEvents
    sx1276.o(i.SX1276OnDio3Irq) refers to sx1276.o(i.SX1276Read) for SX1276Read
    sx1276.o(i.SX1276OnDio3Irq) refers to sx1276.o(i.SX1276Write) for SX1276Write
    sx1276.o(i.SX1276OnDio3Irq) refers to sx1276.o(.bss) for SX1276
    sx1276.o(i.SX1276OnDio3Irq) refers to sx1276.o(.data) for RadioEvents
    sx1276.o(i.SX1276OnDio4Irq) refers to sx1276.o(.bss) for SX1276
    sx1276.o(i.SX1276OnDio5Irq) refers to sx1276.o(.bss) for SX1276
    sx1276.o(i.SX1276OnTimeoutIrq) refers to sx1276.o(i.SX1276Write) for SX1276Write
    sx1276.o(i.SX1276OnTimeoutIrq) refers to sx1276.o(i.SX1276Read) for SX1276Read
    sx1276.o(i.SX1276OnTimeoutIrq) refers to timeserver.o(i.TimerStart) for TimerStart
    sx1276.o(i.SX1276OnTimeoutIrq) refers to timeserver.o(i.TimerStop) for TimerStop
    sx1276.o(i.SX1276OnTimeoutIrq) refers to sx1276.o(i.SX1276Reset) for SX1276Reset
    sx1276.o(i.SX1276OnTimeoutIrq) refers to sx1276.o(i.RxChainCalibration) for RxChainCalibration
    sx1276.o(i.SX1276OnTimeoutIrq) refers to sx1276.o(i.SX1276SetOpMode) for SX1276SetOpMode
    sx1276.o(i.SX1276OnTimeoutIrq) refers to sx1276.o(i.SX1276SetModem) for SX1276SetModem
    sx1276.o(i.SX1276OnTimeoutIrq) refers to sx1276.o(i.SX1276SetPublicNetwork) for SX1276SetPublicNetwork
    sx1276.o(i.SX1276OnTimeoutIrq) refers to sx1276.o(.bss) for SX1276
    sx1276.o(i.SX1276OnTimeoutIrq) refers to sx1276.o(.data) for RadioEvents
    sx1276.o(i.SX1276OnTimeoutIrq) refers to sx1276.o(.constdata) for RadioRegsInit
    sx1276.o(i.SX1276Random) refers to sx1276.o(i.SX1276SetModem) for SX1276SetModem
    sx1276.o(i.SX1276Random) refers to sx1276.o(i.SX1276Write) for SX1276Write
    sx1276.o(i.SX1276Random) refers to sx1276.o(i.SX1276SetOpMode) for SX1276SetOpMode
    sx1276.o(i.SX1276Random) refers to delay.o(i.DelayMs) for DelayMs
    sx1276.o(i.SX1276Random) refers to sx1276.o(i.SX1276Read) for SX1276Read
    sx1276.o(i.SX1276Random) refers to sx1276.o(i.SX1276SetSleep) for SX1276SetSleep
    sx1276.o(i.SX1276Read) refers to sx1276.o(i.SX1276ReadBuffer) for SX1276ReadBuffer
    sx1276.o(i.SX1276ReadBuffer) refers to hw_gpio.o(i.HW_GPIO_Write) for HW_GPIO_Write
    sx1276.o(i.SX1276ReadBuffer) refers to hw_spi.o(i.HW_SPI_InOut) for HW_SPI_InOut
    sx1276.o(i.SX1276ReadFifo) refers to sx1276.o(i.SX1276ReadBuffer) for SX1276ReadBuffer
    sx1276.o(i.SX1276ReadRssi) refers to sx1276.o(i.SX1276Read) for SX1276Read
    sx1276.o(i.SX1276ReadRssi) refers to sx1276.o(.bss) for SX1276
    sx1276.o(i.SX1276Reset) refers to memseta.o(.text) for __aeabi_memclr4
    sx1276.o(i.SX1276Reset) refers to hw_gpio.o(i.HW_GPIO_Init) for HW_GPIO_Init
    sx1276.o(i.SX1276Reset) refers to hw_gpio.o(i.HW_GPIO_Write) for HW_GPIO_Write
    sx1276.o(i.SX1276Reset) refers to delay.o(i.DelayMs) for DelayMs
    sx1276.o(i.SX1276Send) refers to sx1276.o(i.SX1276WriteFifo) for SX1276WriteFifo
    sx1276.o(i.SX1276Send) refers to sx1276.o(i.SX1276Write) for SX1276Write
    sx1276.o(i.SX1276Send) refers to utilities.o(i.memcpy1) for memcpy1
    sx1276.o(i.SX1276Send) refers to sx1276.o(i.SX1276Read) for SX1276Read
    sx1276.o(i.SX1276Send) refers to sx1276.o(i.SX1276SetStby) for SX1276SetStby
    sx1276.o(i.SX1276Send) refers to delay.o(i.DelayMs) for DelayMs
    sx1276.o(i.SX1276Send) refers to sx1276.o(i.SX1276SetTx) for SX1276SetTx
    sx1276.o(i.SX1276Send) refers to sx1276.o(.bss) for SX1276
    sx1276.o(i.SX1276SetChannel) refers to uidiv.o(.text) for __aeabi_uidivmod
    sx1276.o(i.SX1276SetChannel) refers to sx1276.o(i.SX1276Write) for SX1276Write
    sx1276.o(i.SX1276SetChannel) refers to sx1276.o(.bss) for SX1276
    sx1276.o(i.SX1276SetMaxPayloadLength) refers to sx1276.o(i.SX1276SetModem) for SX1276SetModem
    sx1276.o(i.SX1276SetMaxPayloadLength) refers to sx1276.o(i.SX1276Write) for SX1276Write
    sx1276.o(i.SX1276SetMaxPayloadLength) refers to sx1276.o(.bss) for SX1276
    sx1276.o(i.SX1276SetModem) refers to sx1276.o(i.SX1276Read) for SX1276Read
    sx1276.o(i.SX1276SetModem) refers to sx1276.o(i.SX1276SetSleep) for SX1276SetSleep
    sx1276.o(i.SX1276SetModem) refers to sx1276.o(i.SX1276Write) for SX1276Write
    sx1276.o(i.SX1276SetModem) refers to sx1276.o(.bss) for SX1276
    sx1276.o(i.SX1276SetOpMode) refers to sx1276.o(i.SX1276Read) for SX1276Read
    sx1276.o(i.SX1276SetOpMode) refers to sx1276.o(i.SX1276Write) for SX1276Write
    sx1276.o(i.SX1276SetOpMode) refers to sx1276.o(.data) for LoRaBoardCallbacks
    sx1276.o(i.SX1276SetPublicNetwork) refers to sx1276.o(i.SX1276SetModem) for SX1276SetModem
    sx1276.o(i.SX1276SetPublicNetwork) refers to sx1276.o(i.SX1276Write) for SX1276Write
    sx1276.o(i.SX1276SetPublicNetwork) refers to sx1276.o(.bss) for SX1276
    sx1276.o(i.SX1276SetRx) refers to sx1276.o(i.SX1276Read) for SX1276Read
    sx1276.o(i.SX1276SetRx) refers to sx1276.o(i.SX1276Write) for SX1276Write
    sx1276.o(i.SX1276SetRx) refers to sx1276.o(i.__ARM_common_switch8) for __ARM_common_switch8
    sx1276.o(i.SX1276SetRx) refers to sx1276.o(i.SX1276SetChannel) for SX1276SetChannel
    sx1276.o(i.SX1276SetRx) refers to memseta.o(.text) for __aeabi_memclr4
    sx1276.o(i.SX1276SetRx) refers to timeserver.o(i.TimerSetValue) for TimerSetValue
    sx1276.o(i.SX1276SetRx) refers to timeserver.o(i.TimerStart) for TimerStart
    sx1276.o(i.SX1276SetRx) refers to sx1276.o(i.SX1276SetOpMode) for SX1276SetOpMode
    sx1276.o(i.SX1276SetRx) refers to sx1276.o(.bss) for SX1276
    sx1276.o(i.SX1276SetRxConfig) refers to sx1276.o(i.SX1276SetModem) for SX1276SetModem
    sx1276.o(i.SX1276SetRxConfig) refers to dfltui.o(.text) for __aeabi_ui2d
    sx1276.o(i.SX1276SetRxConfig) refers to ddiv.o(.text) for __aeabi_ddiv
    sx1276.o(i.SX1276SetRxConfig) refers to dmul.o(.text) for __aeabi_dmul
    sx1276.o(i.SX1276SetRxConfig) refers to dfixui.o(.text) for __aeabi_d2uiz
    sx1276.o(i.SX1276SetRxConfig) refers to sx1276.o(i.SX1276Write) for SX1276Write
    sx1276.o(i.SX1276SetRxConfig) refers to sx1276.o(i.GetFskBandwidthRegValue) for GetFskBandwidthRegValue
    sx1276.o(i.SX1276SetRxConfig) refers to sx1276.o(i.SX1276Read) for SX1276Read
    sx1276.o(i.SX1276SetRxConfig) refers to sx1276.o(.bss) for SX1276
    sx1276.o(i.SX1276SetSleep) refers to timeserver.o(i.TimerStop) for TimerStop
    sx1276.o(i.SX1276SetSleep) refers to sx1276.o(i.SX1276SetOpMode) for SX1276SetOpMode
    sx1276.o(i.SX1276SetSleep) refers to sx1276.o(.bss) for RxTimeoutTimer
    sx1276.o(i.SX1276SetStby) refers to timeserver.o(i.TimerStop) for TimerStop
    sx1276.o(i.SX1276SetStby) refers to sx1276.o(i.SX1276SetOpMode) for SX1276SetOpMode
    sx1276.o(i.SX1276SetStby) refers to sx1276.o(.bss) for RxTimeoutTimer
    sx1276.o(i.SX1276SetTx) refers to timeserver.o(i.TimerSetValue) for TimerSetValue
    sx1276.o(i.SX1276SetTx) refers to sx1276.o(i.SX1276Read) for SX1276Read
    sx1276.o(i.SX1276SetTx) refers to sx1276.o(i.SX1276Write) for SX1276Write
    sx1276.o(i.SX1276SetTx) refers to timeserver.o(i.TimerStart) for TimerStart
    sx1276.o(i.SX1276SetTx) refers to sx1276.o(i.SX1276SetOpMode) for SX1276SetOpMode
    sx1276.o(i.SX1276SetTx) refers to sx1276.o(.bss) for TxTimeoutTimer
    sx1276.o(i.SX1276SetTxConfig) refers to sx1276.o(i.SX1276SetModem) for SX1276SetModem
    sx1276.o(i.SX1276SetTxConfig) refers to dfltui.o(.text) for __aeabi_ui2d
    sx1276.o(i.SX1276SetTxConfig) refers to ddiv.o(.text) for __aeabi_ddiv
    sx1276.o(i.SX1276SetTxConfig) refers to dfixui.o(.text) for __aeabi_d2uiz
    sx1276.o(i.SX1276SetTxConfig) refers to sx1276.o(i.SX1276Write) for SX1276Write
    sx1276.o(i.SX1276SetTxConfig) refers to sx1276.o(i.SX1276Read) for SX1276Read
    sx1276.o(i.SX1276SetTxConfig) refers to sx1276.o(.data) for LoRaBoardCallbacks
    sx1276.o(i.SX1276SetTxConfig) refers to sx1276.o(.bss) for SX1276
    sx1276.o(i.SX1276SetTxContinuousWave) refers to sx1276.o(i.SX1276SetChannel) for SX1276SetChannel
    sx1276.o(i.SX1276SetTxContinuousWave) refers to sx1276.o(i.SX1276SetTxConfig) for SX1276SetTxConfig
    sx1276.o(i.SX1276SetTxContinuousWave) refers to sx1276.o(i.SX1276Read) for SX1276Read
    sx1276.o(i.SX1276SetTxContinuousWave) refers to sx1276.o(i.SX1276Write) for SX1276Write
    sx1276.o(i.SX1276SetTxContinuousWave) refers to timeserver.o(i.TimerSetValue) for TimerSetValue
    sx1276.o(i.SX1276SetTxContinuousWave) refers to timeserver.o(i.TimerStart) for TimerStart
    sx1276.o(i.SX1276SetTxContinuousWave) refers to sx1276.o(i.SX1276SetOpMode) for SX1276SetOpMode
    sx1276.o(i.SX1276SetTxContinuousWave) refers to sx1276.o(.bss) for TxTimeoutTimer
    sx1276.o(i.SX1276StartCad) refers to sx1276.o(i.SX1276Write) for SX1276Write
    sx1276.o(i.SX1276StartCad) refers to sx1276.o(i.SX1276Read) for SX1276Read
    sx1276.o(i.SX1276StartCad) refers to sx1276.o(i.SX1276SetOpMode) for SX1276SetOpMode
    sx1276.o(i.SX1276StartCad) refers to sx1276.o(.bss) for SX1276
    sx1276.o(i.SX1276Write) refers to sx1276.o(i.SX1276WriteBuffer) for SX1276WriteBuffer
    sx1276.o(i.SX1276WriteBuffer) refers to hw_gpio.o(i.HW_GPIO_Write) for HW_GPIO_Write
    sx1276.o(i.SX1276WriteBuffer) refers to hw_spi.o(i.HW_SPI_InOut) for HW_SPI_InOut
    sx1276.o(i.SX1276WriteFifo) refers to sx1276.o(i.SX1276WriteBuffer) for SX1276WriteBuffer
    sx1276.o(.data) refers to sx1276.o(i.SX1276OnDio0Irq) for SX1276OnDio0Irq
    sx1276.o(.data) refers to sx1276.o(i.SX1276OnDio1Irq) for SX1276OnDio1Irq
    sx1276.o(.data) refers to sx1276.o(i.SX1276OnDio2Irq) for SX1276OnDio2Irq
    sx1276.o(.data) refers to sx1276.o(i.SX1276OnDio3Irq) for SX1276OnDio3Irq
    sx1276.o(.data) refers to sx1276.o(i.SX1276OnDio4Irq) for SX1276OnDio4Irq
    mlm32l07x01.o(i.SX1276AntSwDeInit) refers to memseta.o(.text) for __aeabi_memclr4
    mlm32l07x01.o(i.SX1276AntSwDeInit) refers to hw_gpio.o(i.HW_GPIO_Init) for HW_GPIO_Init
    mlm32l07x01.o(i.SX1276AntSwDeInit) refers to hw_gpio.o(i.HW_GPIO_Write) for HW_GPIO_Write
    mlm32l07x01.o(i.SX1276AntSwInit) refers to memseta.o(.text) for __aeabi_memclr4
    mlm32l07x01.o(i.SX1276AntSwInit) refers to hw_gpio.o(i.HW_GPIO_Init) for HW_GPIO_Init
    mlm32l07x01.o(i.SX1276AntSwInit) refers to hw_gpio.o(i.HW_GPIO_Write) for HW_GPIO_Write
    mlm32l07x01.o(i.SX1276IoDeInit) refers to memseta.o(.text) for __aeabi_memclr4
    mlm32l07x01.o(i.SX1276IoDeInit) refers to hw_gpio.o(i.HW_GPIO_Init) for HW_GPIO_Init
    mlm32l07x01.o(i.SX1276IoInit) refers to memseta.o(.text) for __aeabi_memclr4
    mlm32l07x01.o(i.SX1276IoInit) refers to sx1276.o(i.SX1276BoardInit) for SX1276BoardInit
    mlm32l07x01.o(i.SX1276IoInit) refers to hw_gpio.o(i.HW_GPIO_Init) for HW_GPIO_Init
    mlm32l07x01.o(i.SX1276IoInit) refers to mlm32l07x01.o(.data) for BoardCallbacks
    mlm32l07x01.o(i.SX1276IoIrqInit) refers to hw_gpio.o(i.HW_GPIO_SetIrq) for HW_GPIO_SetIrq
    mlm32l07x01.o(i.SX1276SetAntSw) refers to sx1276.o(i.SX1276Read) for SX1276Read
    mlm32l07x01.o(i.SX1276SetAntSw) refers to hw_gpio.o(i.HW_GPIO_Write) for HW_GPIO_Write
    mlm32l07x01.o(i.SX1276SetAntSw) refers to sx1276.o(.bss) for SX1276
    mlm32l07x01.o(i.SX1276SetAntSwLowPower) refers to mlm32l07x01.o(i.SX1276AntSwInit) for SX1276AntSwInit
    mlm32l07x01.o(i.SX1276SetAntSwLowPower) refers to mlm32l07x01.o(i.SX1276AntSwDeInit) for SX1276AntSwDeInit
    mlm32l07x01.o(i.SX1276SetRfTxPower) refers to sx1276.o(i.SX1276Read) for SX1276Read
    mlm32l07x01.o(i.SX1276SetRfTxPower) refers to mlm32l07x01.o(i.SX1276GetPaSelect) for SX1276GetPaSelect
    mlm32l07x01.o(i.SX1276SetRfTxPower) refers to sx1276.o(i.SX1276Write) for SX1276Write
    mlm32l07x01.o(i.SX1276SetXO) refers to hw_gpio.o(i.HW_GPIO_Write) for HW_GPIO_Write
    mlm32l07x01.o(i.SX1276SetXO) refers to delay.o(i.DelayMs) for DelayMs
    mlm32l07x01.o(.constdata) refers to mlm32l07x01.o(i.SX1276IoInit) for SX1276IoInit
    mlm32l07x01.o(.constdata) refers to mlm32l07x01.o(i.SX1276IoDeInit) for SX1276IoDeInit
    mlm32l07x01.o(.constdata) refers to sx1276.o(i.SX1276Init) for SX1276Init
    mlm32l07x01.o(.constdata) refers to sx1276.o(i.SX1276GetStatus) for SX1276GetStatus
    mlm32l07x01.o(.constdata) refers to sx1276.o(i.SX1276SetModem) for SX1276SetModem
    mlm32l07x01.o(.constdata) refers to sx1276.o(i.SX1276SetChannel) for SX1276SetChannel
    mlm32l07x01.o(.constdata) refers to sx1276.o(i.SX1276IsChannelFree) for SX1276IsChannelFree
    mlm32l07x01.o(.constdata) refers to sx1276.o(i.SX1276Random) for SX1276Random
    mlm32l07x01.o(.constdata) refers to sx1276.o(i.SX1276SetRxConfig) for SX1276SetRxConfig
    mlm32l07x01.o(.constdata) refers to sx1276.o(i.SX1276SetTxConfig) for SX1276SetTxConfig
    mlm32l07x01.o(.constdata) refers to mlm32l07x01.o(i.SX1276CheckRfFrequency) for SX1276CheckRfFrequency
    mlm32l07x01.o(.constdata) refers to sx1276.o(i.SX1276GetTimeOnAir) for SX1276GetTimeOnAir
    mlm32l07x01.o(.constdata) refers to sx1276.o(i.SX1276Send) for SX1276Send
    mlm32l07x01.o(.constdata) refers to sx1276.o(i.SX1276SetSleep) for SX1276SetSleep
    mlm32l07x01.o(.constdata) refers to sx1276.o(i.SX1276SetStby) for SX1276SetStby
    mlm32l07x01.o(.constdata) refers to sx1276.o(i.SX1276SetRx) for SX1276SetRx
    mlm32l07x01.o(.constdata) refers to sx1276.o(i.SX1276StartCad) for SX1276StartCad
    mlm32l07x01.o(.constdata) refers to sx1276.o(i.SX1276SetTxContinuousWave) for SX1276SetTxContinuousWave
    mlm32l07x01.o(.constdata) refers to sx1276.o(i.SX1276ReadRssi) for SX1276ReadRssi
    mlm32l07x01.o(.constdata) refers to sx1276.o(i.SX1276Write) for SX1276Write
    mlm32l07x01.o(.constdata) refers to sx1276.o(i.SX1276Read) for SX1276Read
    mlm32l07x01.o(.constdata) refers to sx1276.o(i.SX1276WriteBuffer) for SX1276WriteBuffer
    mlm32l07x01.o(.constdata) refers to sx1276.o(i.SX1276ReadBuffer) for SX1276ReadBuffer
    mlm32l07x01.o(.constdata) refers to sx1276.o(i.SX1276SetMaxPayloadLength) for SX1276SetMaxPayloadLength
    mlm32l07x01.o(.constdata) refers to sx1276.o(i.SX1276SetPublicNetwork) for SX1276SetPublicNetwork
    mlm32l07x01.o(.constdata) refers to sx1276.o(i.SX1276GetRadioWakeUpTime) for SX1276GetRadioWakeUpTime
    mlm32l07x01.o(.data) refers to mlm32l07x01.o(i.SX1276SetXO) for SX1276SetXO
    mlm32l07x01.o(.data) refers to mlm32l07x01.o(i.SX1276GetWakeTime) for SX1276GetWakeTime
    mlm32l07x01.o(.data) refers to mlm32l07x01.o(i.SX1276IoIrqInit) for SX1276IoIrqInit
    mlm32l07x01.o(.data) refers to mlm32l07x01.o(i.SX1276SetRfTxPower) for SX1276SetRfTxPower
    mlm32l07x01.o(.data) refers to mlm32l07x01.o(i.SX1276SetAntSwLowPower) for SX1276SetAntSwLowPower
    mlm32l07x01.o(.data) refers to mlm32l07x01.o(i.SX1276SetAntSw) for SX1276SetAntSw
    b-l072z-lrwan1.o(i.BSP_LED_Init) refers to stm32l0xx_hal_gpio.o(i.HAL_GPIO_Init) for HAL_GPIO_Init
    b-l072z-lrwan1.o(i.BSP_LED_Init) refers to b-l072z-lrwan1.o(.constdata) for LED_PIN
    b-l072z-lrwan1.o(i.BSP_LED_Init) refers to b-l072z-lrwan1.o(.data) for LED_PORT
    b-l072z-lrwan1.o(i.BSP_LED_Off) refers to stm32l0xx_hal_gpio.o(i.HAL_GPIO_WritePin) for HAL_GPIO_WritePin
    b-l072z-lrwan1.o(i.BSP_LED_Off) refers to b-l072z-lrwan1.o(.constdata) for LED_PIN
    b-l072z-lrwan1.o(i.BSP_LED_Off) refers to b-l072z-lrwan1.o(.data) for LED_PORT
    b-l072z-lrwan1.o(i.BSP_LED_On) refers to stm32l0xx_hal_gpio.o(i.HAL_GPIO_WritePin) for HAL_GPIO_WritePin
    b-l072z-lrwan1.o(i.BSP_LED_On) refers to b-l072z-lrwan1.o(.constdata) for LED_PIN
    b-l072z-lrwan1.o(i.BSP_LED_On) refers to b-l072z-lrwan1.o(.data) for LED_PORT
    b-l072z-lrwan1.o(i.BSP_LED_Toggle) refers to stm32l0xx_hal_gpio.o(i.HAL_GPIO_TogglePin) for HAL_GPIO_TogglePin
    b-l072z-lrwan1.o(i.BSP_LED_Toggle) refers to b-l072z-lrwan1.o(.constdata) for LED_PIN
    b-l072z-lrwan1.o(i.BSP_LED_Toggle) refers to b-l072z-lrwan1.o(.data) for LED_PORT
    b-l072z-lrwan1.o(i.BSP_PB_GetState) refers to stm32l0xx_hal_gpio.o(i.HAL_GPIO_ReadPin) for HAL_GPIO_ReadPin
    b-l072z-lrwan1.o(i.BSP_PB_GetState) refers to b-l072z-lrwan1.o(.constdata) for BUTTON_PIN
    b-l072z-lrwan1.o(i.BSP_PB_GetState) refers to b-l072z-lrwan1.o(.data) for BUTTON_PORT
    b-l072z-lrwan1.o(i.BSP_PB_Init) refers to stm32l0xx_hal_gpio.o(i.HAL_GPIO_Init) for HAL_GPIO_Init
    b-l072z-lrwan1.o(i.BSP_PB_Init) refers to b-l072z-lrwan1.o(i.NVIC_SetPriority) for NVIC_SetPriority
    b-l072z-lrwan1.o(i.BSP_PB_Init) refers to stm32l0xx_hal_cortex.o(i.HAL_NVIC_EnableIRQ) for HAL_NVIC_EnableIRQ
    b-l072z-lrwan1.o(i.BSP_PB_Init) refers to b-l072z-lrwan1.o(.constdata) for BUTTON_PIN
    b-l072z-lrwan1.o(i.BSP_PB_Init) refers to b-l072z-lrwan1.o(.data) for BUTTON_PORT
    system_stm32l0xx.o(i.SystemCoreClockUpdate) refers to uidiv.o(.text) for __aeabi_uidivmod
    system_stm32l0xx.o(i.SystemCoreClockUpdate) refers to system_stm32l0xx.o(.data) for SystemCoreClock
    system_stm32l0xx.o(i.SystemCoreClockUpdate) refers to system_stm32l0xx.o(.constdata) for PLLMulTable
    stm32l0xx_hal_spi.o(i.HAL_SPI_DMAStop) refers to stm32l0xx_hal_dma.o(i.HAL_DMA_Abort) for HAL_DMA_Abort
    stm32l0xx_hal_spi.o(i.HAL_SPI_DeInit) refers to stm32l0xx_hal_spi.o(i.HAL_SPI_MspDeInit) for HAL_SPI_MspDeInit
    stm32l0xx_hal_spi.o(i.HAL_SPI_IRQHandler) refers to stm32l0xx_hal_spi.o(i.HAL_SPI_ErrorCallback) for HAL_SPI_ErrorCallback
    stm32l0xx_hal_spi.o(i.HAL_SPI_Init) refers to stm32l0xx_hal_spi.o(i.HAL_SPI_MspInit) for HAL_SPI_MspInit
    stm32l0xx_hal_spi.o(i.HAL_SPI_Receive) refers to stm32l0xx_hal_spi.o(i.HAL_SPI_TransmitReceive) for HAL_SPI_TransmitReceive
    stm32l0xx_hal_spi.o(i.HAL_SPI_Receive) refers to stm32l0xx_hal_spi.o(i.SPI_WaitOnFlagUntilTimeout) for SPI_WaitOnFlagUntilTimeout
    stm32l0xx_hal_spi.o(i.HAL_SPI_Receive_DMA) refers to stm32l0xx_hal_spi.o(i.HAL_SPI_TransmitReceive_DMA) for HAL_SPI_TransmitReceive_DMA
    stm32l0xx_hal_spi.o(i.HAL_SPI_Receive_DMA) refers to stm32l0xx_hal_dma.o(i.HAL_DMA_Start_IT) for HAL_DMA_Start_IT
    stm32l0xx_hal_spi.o(i.HAL_SPI_Receive_DMA) refers to stm32l0xx_hal_spi.o(i.SPI_DMAHalfReceiveCplt) for SPI_DMAHalfReceiveCplt
    stm32l0xx_hal_spi.o(i.HAL_SPI_Receive_DMA) refers to stm32l0xx_hal_spi.o(i.SPI_DMAReceiveCplt) for SPI_DMAReceiveCplt
    stm32l0xx_hal_spi.o(i.HAL_SPI_Receive_DMA) refers to stm32l0xx_hal_spi.o(i.SPI_DMAError) for SPI_DMAError
    stm32l0xx_hal_spi.o(i.HAL_SPI_Receive_IT) refers to stm32l0xx_hal_spi.o(i.HAL_SPI_TransmitReceive_IT) for HAL_SPI_TransmitReceive_IT
    stm32l0xx_hal_spi.o(i.HAL_SPI_Receive_IT) refers to stm32l0xx_hal_spi.o(i.SPI_RxISR) for SPI_RxISR
    stm32l0xx_hal_spi.o(i.HAL_SPI_Transmit) refers to stm32l0xx_hal_spi.o(i.SPI_WaitOnFlagUntilTimeout) for SPI_WaitOnFlagUntilTimeout
    stm32l0xx_hal_spi.o(i.HAL_SPI_TransmitReceive) refers to stm32l0xx_hal_spi.o(i.SPI_WaitOnFlagUntilTimeout) for SPI_WaitOnFlagUntilTimeout
    stm32l0xx_hal_spi.o(i.HAL_SPI_TransmitReceive_DMA) refers to stm32l0xx_hal_dma.o(i.HAL_DMA_Start_IT) for HAL_DMA_Start_IT
    stm32l0xx_hal_spi.o(i.HAL_SPI_TransmitReceive_DMA) refers to stm32l0xx_hal_spi.o(i.SPI_DMAHalfReceiveCplt) for SPI_DMAHalfReceiveCplt
    stm32l0xx_hal_spi.o(i.HAL_SPI_TransmitReceive_DMA) refers to stm32l0xx_hal_spi.o(i.SPI_DMAReceiveCplt) for SPI_DMAReceiveCplt
    stm32l0xx_hal_spi.o(i.HAL_SPI_TransmitReceive_DMA) refers to stm32l0xx_hal_spi.o(i.SPI_DMAHalfTransmitReceiveCplt) for SPI_DMAHalfTransmitReceiveCplt
    stm32l0xx_hal_spi.o(i.HAL_SPI_TransmitReceive_DMA) refers to stm32l0xx_hal_spi.o(i.SPI_DMATransmitReceiveCplt) for SPI_DMATransmitReceiveCplt
    stm32l0xx_hal_spi.o(i.HAL_SPI_TransmitReceive_DMA) refers to stm32l0xx_hal_spi.o(i.SPI_DMAError) for SPI_DMAError
    stm32l0xx_hal_spi.o(i.HAL_SPI_TransmitReceive_IT) refers to stm32l0xx_hal_spi.o(i.SPI_TxISR) for SPI_TxISR
    stm32l0xx_hal_spi.o(i.HAL_SPI_TransmitReceive_IT) refers to stm32l0xx_hal_spi.o(i.SPI_2LinesRxISR) for SPI_2LinesRxISR
    stm32l0xx_hal_spi.o(i.HAL_SPI_Transmit_DMA) refers to stm32l0xx_hal_dma.o(i.HAL_DMA_Start_IT) for HAL_DMA_Start_IT
    stm32l0xx_hal_spi.o(i.HAL_SPI_Transmit_DMA) refers to stm32l0xx_hal_spi.o(i.SPI_DMAHalfTransmitCplt) for SPI_DMAHalfTransmitCplt
    stm32l0xx_hal_spi.o(i.HAL_SPI_Transmit_DMA) refers to stm32l0xx_hal_spi.o(i.SPI_DMATransmitCplt) for SPI_DMATransmitCplt
    stm32l0xx_hal_spi.o(i.HAL_SPI_Transmit_DMA) refers to stm32l0xx_hal_spi.o(i.SPI_DMAError) for SPI_DMAError
    stm32l0xx_hal_spi.o(i.HAL_SPI_Transmit_IT) refers to stm32l0xx_hal_spi.o(i.SPI_TxISR) for SPI_TxISR
    stm32l0xx_hal_spi.o(i.SPI_2LinesRxISR) refers to stm32l0xx_hal_spi.o(i.SPI_RxCloseIRQHandler) for SPI_RxCloseIRQHandler
    stm32l0xx_hal_spi.o(i.SPI_DMAError) refers to stm32l0xx_hal_spi.o(i.HAL_SPI_ErrorCallback) for HAL_SPI_ErrorCallback
    stm32l0xx_hal_spi.o(i.SPI_DMAHalfReceiveCplt) refers to stm32l0xx_hal_spi.o(i.HAL_SPI_RxHalfCpltCallback) for HAL_SPI_RxHalfCpltCallback
    stm32l0xx_hal_spi.o(i.SPI_DMAHalfTransmitCplt) refers to stm32l0xx_hal_spi.o(i.HAL_SPI_TxHalfCpltCallback) for HAL_SPI_TxHalfCpltCallback
    stm32l0xx_hal_spi.o(i.SPI_DMAHalfTransmitReceiveCplt) refers to stm32l0xx_hal_spi.o(i.HAL_SPI_TxRxHalfCpltCallback) for HAL_SPI_TxRxHalfCpltCallback
    stm32l0xx_hal_spi.o(i.SPI_DMAReceiveCplt) refers to stm32l0xx_hal_spi.o(i.SPI_WaitOnFlagUntilTimeout) for SPI_WaitOnFlagUntilTimeout
    stm32l0xx_hal_spi.o(i.SPI_DMAReceiveCplt) refers to stm32l0xx_hal_spi.o(i.HAL_SPI_ErrorCallback) for HAL_SPI_ErrorCallback
    stm32l0xx_hal_spi.o(i.SPI_DMAReceiveCplt) refers to stm32l0xx_hal_spi.o(i.HAL_SPI_RxCpltCallback) for HAL_SPI_RxCpltCallback
    stm32l0xx_hal_spi.o(i.SPI_DMATransmitCplt) refers to stm32l0xx_hal_spi.o(i.SPI_WaitOnFlagUntilTimeout) for SPI_WaitOnFlagUntilTimeout
    stm32l0xx_hal_spi.o(i.SPI_DMATransmitCplt) refers to stm32l0xx_hal_spi.o(i.HAL_SPI_ErrorCallback) for HAL_SPI_ErrorCallback
    stm32l0xx_hal_spi.o(i.SPI_DMATransmitCplt) refers to stm32l0xx_hal_spi.o(i.HAL_SPI_TxCpltCallback) for HAL_SPI_TxCpltCallback
    stm32l0xx_hal_spi.o(i.SPI_DMATransmitReceiveCplt) refers to stm32l0xx_hal_spi.o(i.SPI_WaitOnFlagUntilTimeout) for SPI_WaitOnFlagUntilTimeout
    stm32l0xx_hal_spi.o(i.SPI_DMATransmitReceiveCplt) refers to stm32l0xx_hal_spi.o(i.HAL_SPI_ErrorCallback) for HAL_SPI_ErrorCallback
    stm32l0xx_hal_spi.o(i.SPI_DMATransmitReceiveCplt) refers to stm32l0xx_hal_spi.o(i.HAL_SPI_TxRxCpltCallback) for HAL_SPI_TxRxCpltCallback
    stm32l0xx_hal_spi.o(i.SPI_RxCloseIRQHandler) refers to stm32l0xx_hal_spi.o(i.SPI_WaitOnFlagUntilTimeout) for SPI_WaitOnFlagUntilTimeout
    stm32l0xx_hal_spi.o(i.SPI_RxCloseIRQHandler) refers to stm32l0xx_hal_spi.o(i.HAL_SPI_TxRxCpltCallback) for HAL_SPI_TxRxCpltCallback
    stm32l0xx_hal_spi.o(i.SPI_RxCloseIRQHandler) refers to stm32l0xx_hal_spi.o(i.HAL_SPI_RxCpltCallback) for HAL_SPI_RxCpltCallback
    stm32l0xx_hal_spi.o(i.SPI_RxCloseIRQHandler) refers to stm32l0xx_hal_spi.o(i.HAL_SPI_ErrorCallback) for HAL_SPI_ErrorCallback
    stm32l0xx_hal_spi.o(i.SPI_RxISR) refers to stm32l0xx_hal_spi.o(i.SPI_RxCloseIRQHandler) for SPI_RxCloseIRQHandler
    stm32l0xx_hal_spi.o(i.SPI_TxCloseIRQHandler) refers to stm32l0xx_hal_spi.o(i.SPI_WaitOnFlagUntilTimeout) for SPI_WaitOnFlagUntilTimeout
    stm32l0xx_hal_spi.o(i.SPI_TxCloseIRQHandler) refers to stm32l0xx_hal_spi.o(i.HAL_SPI_TxRxCpltCallback) for HAL_SPI_TxRxCpltCallback
    stm32l0xx_hal_spi.o(i.SPI_TxCloseIRQHandler) refers to stm32l0xx_hal_spi.o(i.HAL_SPI_TxCpltCallback) for HAL_SPI_TxCpltCallback
    stm32l0xx_hal_spi.o(i.SPI_TxCloseIRQHandler) refers to stm32l0xx_hal_spi.o(i.HAL_SPI_ErrorCallback) for HAL_SPI_ErrorCallback
    stm32l0xx_hal_spi.o(i.SPI_TxISR) refers to stm32l0xx_hal_spi.o(i.SPI_TxCloseIRQHandler) for SPI_TxCloseIRQHandler
    stm32l0xx_hal_spi.o(i.SPI_WaitOnFlagUntilTimeout) refers to stm32l0xx_hal.o(i.HAL_GetTick) for HAL_GetTick
    stm32l0xx_hal_uart.o(i.HAL_HalfDuplex_Init) refers to vcom.o(i.HAL_UART_MspInit) for HAL_UART_MspInit
    stm32l0xx_hal_uart.o(i.HAL_HalfDuplex_Init) refers to stm32l0xx_hal_uart.o(i.UART_AdvFeatureConfig) for UART_AdvFeatureConfig
    stm32l0xx_hal_uart.o(i.HAL_HalfDuplex_Init) refers to stm32l0xx_hal_uart.o(i.UART_SetConfig) for UART_SetConfig
    stm32l0xx_hal_uart.o(i.HAL_HalfDuplex_Init) refers to stm32l0xx_hal_uart.o(i.UART_CheckIdleState) for UART_CheckIdleState
    stm32l0xx_hal_uart.o(i.HAL_LIN_Init) refers to vcom.o(i.HAL_UART_MspInit) for HAL_UART_MspInit
    stm32l0xx_hal_uart.o(i.HAL_LIN_Init) refers to stm32l0xx_hal_uart.o(i.UART_AdvFeatureConfig) for UART_AdvFeatureConfig
    stm32l0xx_hal_uart.o(i.HAL_LIN_Init) refers to stm32l0xx_hal_uart.o(i.UART_SetConfig) for UART_SetConfig
    stm32l0xx_hal_uart.o(i.HAL_LIN_Init) refers to stm32l0xx_hal_uart.o(i.UART_CheckIdleState) for UART_CheckIdleState
    stm32l0xx_hal_uart.o(i.HAL_MultiProcessor_DisableMuteMode) refers to stm32l0xx_hal_uart.o(i.UART_CheckIdleState) for UART_CheckIdleState
    stm32l0xx_hal_uart.o(i.HAL_MultiProcessor_EnableMuteMode) refers to stm32l0xx_hal_uart.o(i.UART_CheckIdleState) for UART_CheckIdleState
    stm32l0xx_hal_uart.o(i.HAL_MultiProcessor_Init) refers to vcom.o(i.HAL_UART_MspInit) for HAL_UART_MspInit
    stm32l0xx_hal_uart.o(i.HAL_MultiProcessor_Init) refers to stm32l0xx_hal_uart.o(i.UART_AdvFeatureConfig) for UART_AdvFeatureConfig
    stm32l0xx_hal_uart.o(i.HAL_MultiProcessor_Init) refers to stm32l0xx_hal_uart.o(i.UART_SetConfig) for UART_SetConfig
    stm32l0xx_hal_uart.o(i.HAL_MultiProcessor_Init) refers to stm32l0xx_hal_uart.o(i.UART_CheckIdleState) for UART_CheckIdleState
    stm32l0xx_hal_uart.o(i.HAL_UART_Abort) refers to stm32l0xx_hal_dma.o(i.HAL_DMA_Abort) for HAL_DMA_Abort
    stm32l0xx_hal_uart.o(i.HAL_UART_AbortReceive) refers to stm32l0xx_hal_dma.o(i.HAL_DMA_Abort) for HAL_DMA_Abort
    stm32l0xx_hal_uart.o(i.HAL_UART_AbortReceive_IT) refers to stm32l0xx_hal_dma.o(i.HAL_DMA_Abort_IT) for HAL_DMA_Abort_IT
    stm32l0xx_hal_uart.o(i.HAL_UART_AbortReceive_IT) refers to stm32l0xx_hal_uart.o(i.HAL_UART_AbortReceiveCpltCallback) for HAL_UART_AbortReceiveCpltCallback
    stm32l0xx_hal_uart.o(i.HAL_UART_AbortReceive_IT) refers to stm32l0xx_hal_uart.o(i.UART_DMARxOnlyAbortCallback) for UART_DMARxOnlyAbortCallback
    stm32l0xx_hal_uart.o(i.HAL_UART_AbortTransmit) refers to stm32l0xx_hal_dma.o(i.HAL_DMA_Abort) for HAL_DMA_Abort
    stm32l0xx_hal_uart.o(i.HAL_UART_AbortTransmit_IT) refers to stm32l0xx_hal_dma.o(i.HAL_DMA_Abort_IT) for HAL_DMA_Abort_IT
    stm32l0xx_hal_uart.o(i.HAL_UART_AbortTransmit_IT) refers to stm32l0xx_hal_uart.o(i.HAL_UART_AbortTransmitCpltCallback) for HAL_UART_AbortTransmitCpltCallback
    stm32l0xx_hal_uart.o(i.HAL_UART_AbortTransmit_IT) refers to stm32l0xx_hal_uart.o(i.UART_DMATxOnlyAbortCallback) for UART_DMATxOnlyAbortCallback
    stm32l0xx_hal_uart.o(i.HAL_UART_Abort_IT) refers to stm32l0xx_hal_dma.o(i.HAL_DMA_Abort_IT) for HAL_DMA_Abort_IT
    stm32l0xx_hal_uart.o(i.HAL_UART_Abort_IT) refers to stm32l0xx_hal_uart.o(i.HAL_UART_AbortCpltCallback) for HAL_UART_AbortCpltCallback
    stm32l0xx_hal_uart.o(i.HAL_UART_Abort_IT) refers to stm32l0xx_hal_uart.o(i.UART_DMATxAbortCallback) for UART_DMATxAbortCallback
    stm32l0xx_hal_uart.o(i.HAL_UART_Abort_IT) refers to stm32l0xx_hal_uart.o(i.UART_DMARxAbortCallback) for UART_DMARxAbortCallback
    stm32l0xx_hal_uart.o(i.HAL_UART_DMAStop) refers to stm32l0xx_hal_dma.o(i.HAL_DMA_Abort) for HAL_DMA_Abort
    stm32l0xx_hal_uart.o(i.HAL_UART_DMAStop) refers to stm32l0xx_hal_uart.o(i.UART_EndTxTransfer) for UART_EndTxTransfer
    stm32l0xx_hal_uart.o(i.HAL_UART_DMAStop) refers to stm32l0xx_hal_uart.o(i.UART_EndRxTransfer) for UART_EndRxTransfer
    stm32l0xx_hal_uart.o(i.HAL_UART_DeInit) refers to vcom.o(i.HAL_UART_MspDeInit) for HAL_UART_MspDeInit
    stm32l0xx_hal_uart.o(i.HAL_UART_IRQHandler) refers to stm32l0xx_hal_uart.o(i.UART_Receive_IT) for UART_Receive_IT
    stm32l0xx_hal_uart.o(i.HAL_UART_IRQHandler) refers to stm32l0xx_hal_uart.o(i.UART_EndRxTransfer) for UART_EndRxTransfer
    stm32l0xx_hal_uart.o(i.HAL_UART_IRQHandler) refers to stm32l0xx_hal_dma.o(i.HAL_DMA_Abort_IT) for HAL_DMA_Abort_IT
    stm32l0xx_hal_uart.o(i.HAL_UART_IRQHandler) refers to stm32l0xx_hal_uart.o(i.HAL_UART_ErrorCallback) for HAL_UART_ErrorCallback
    stm32l0xx_hal_uart.o(i.HAL_UART_IRQHandler) refers to stm32l0xx_hal_uart_ex.o(i.HAL_UARTEx_WakeupCallback) for HAL_UARTEx_WakeupCallback
    stm32l0xx_hal_uart.o(i.HAL_UART_IRQHandler) refers to stm32l0xx_hal_uart.o(i.UART_Transmit_IT) for UART_Transmit_IT
    stm32l0xx_hal_uart.o(i.HAL_UART_IRQHandler) refers to stm32l0xx_hal_uart.o(i.UART_EndTransmit_IT) for UART_EndTransmit_IT
    stm32l0xx_hal_uart.o(i.HAL_UART_IRQHandler) refers to stm32l0xx_hal_uart.o(i.UART_DMAAbortOnError) for UART_DMAAbortOnError
    stm32l0xx_hal_uart.o(i.HAL_UART_Init) refers to vcom.o(i.HAL_UART_MspInit) for HAL_UART_MspInit
    stm32l0xx_hal_uart.o(i.HAL_UART_Init) refers to stm32l0xx_hal_uart.o(i.UART_AdvFeatureConfig) for UART_AdvFeatureConfig
    stm32l0xx_hal_uart.o(i.HAL_UART_Init) refers to stm32l0xx_hal_uart.o(i.UART_SetConfig) for UART_SetConfig
    stm32l0xx_hal_uart.o(i.HAL_UART_Init) refers to stm32l0xx_hal_uart.o(i.UART_CheckIdleState) for UART_CheckIdleState
    stm32l0xx_hal_uart.o(i.HAL_UART_Receive) refers to stm32l0xx_hal.o(i.HAL_GetTick) for HAL_GetTick
    stm32l0xx_hal_uart.o(i.HAL_UART_Receive) refers to stm32l0xx_hal_uart.o(i.UART_WaitOnFlagUntilTimeout) for UART_WaitOnFlagUntilTimeout
    stm32l0xx_hal_uart.o(i.HAL_UART_Receive_DMA) refers to stm32l0xx_hal_dma.o(i.HAL_DMA_Start_IT) for HAL_DMA_Start_IT
    stm32l0xx_hal_uart.o(i.HAL_UART_Receive_DMA) refers to stm32l0xx_hal_uart.o(i.UART_DMAReceiveCplt) for UART_DMAReceiveCplt
    stm32l0xx_hal_uart.o(i.HAL_UART_Receive_DMA) refers to stm32l0xx_hal_uart.o(i.UART_DMARxHalfCplt) for UART_DMARxHalfCplt
    stm32l0xx_hal_uart.o(i.HAL_UART_Receive_DMA) refers to stm32l0xx_hal_uart.o(i.UART_DMAError) for UART_DMAError
    stm32l0xx_hal_uart.o(i.HAL_UART_Transmit) refers to stm32l0xx_hal.o(i.HAL_GetTick) for HAL_GetTick
    stm32l0xx_hal_uart.o(i.HAL_UART_Transmit) refers to stm32l0xx_hal_uart.o(i.UART_WaitOnFlagUntilTimeout) for UART_WaitOnFlagUntilTimeout
    stm32l0xx_hal_uart.o(i.HAL_UART_Transmit_DMA) refers to stm32l0xx_hal_dma.o(i.HAL_DMA_Start_IT) for HAL_DMA_Start_IT
    stm32l0xx_hal_uart.o(i.HAL_UART_Transmit_DMA) refers to stm32l0xx_hal_uart.o(i.UART_DMATransmitCplt) for UART_DMATransmitCplt
    stm32l0xx_hal_uart.o(i.HAL_UART_Transmit_DMA) refers to stm32l0xx_hal_uart.o(i.UART_DMATxHalfCplt) for UART_DMATxHalfCplt
    stm32l0xx_hal_uart.o(i.HAL_UART_Transmit_DMA) refers to stm32l0xx_hal_uart.o(i.UART_DMAError) for UART_DMAError
    stm32l0xx_hal_uart.o(i.UART_CheckIdleState) refers to stm32l0xx_hal.o(i.HAL_GetTick) for HAL_GetTick
    stm32l0xx_hal_uart.o(i.UART_CheckIdleState) refers to stm32l0xx_hal_uart.o(i.UART_WaitOnFlagUntilTimeout) for UART_WaitOnFlagUntilTimeout
    stm32l0xx_hal_uart.o(i.UART_DMAAbortOnError) refers to stm32l0xx_hal_uart.o(i.HAL_UART_ErrorCallback) for HAL_UART_ErrorCallback
    stm32l0xx_hal_uart.o(i.UART_DMAError) refers to stm32l0xx_hal_uart.o(i.UART_EndTxTransfer) for UART_EndTxTransfer
    stm32l0xx_hal_uart.o(i.UART_DMAError) refers to stm32l0xx_hal_uart.o(i.UART_EndRxTransfer) for UART_EndRxTransfer
    stm32l0xx_hal_uart.o(i.UART_DMAError) refers to stm32l0xx_hal_uart.o(i.HAL_UART_ErrorCallback) for HAL_UART_ErrorCallback
    stm32l0xx_hal_uart.o(i.UART_DMAReceiveCplt) refers to stm32l0xx_hal_uart.o(i.HAL_UART_RxCpltCallback) for HAL_UART_RxCpltCallback
    stm32l0xx_hal_uart.o(i.UART_DMARxAbortCallback) refers to stm32l0xx_hal_uart.o(i.HAL_UART_AbortCpltCallback) for HAL_UART_AbortCpltCallback
    stm32l0xx_hal_uart.o(i.UART_DMARxHalfCplt) refers to stm32l0xx_hal_uart.o(i.HAL_UART_RxHalfCpltCallback) for HAL_UART_RxHalfCpltCallback
    stm32l0xx_hal_uart.o(i.UART_DMARxOnlyAbortCallback) refers to stm32l0xx_hal_uart.o(i.HAL_UART_AbortReceiveCpltCallback) for HAL_UART_AbortReceiveCpltCallback
    stm32l0xx_hal_uart.o(i.UART_DMATransmitCplt) refers to stm32l0xx_hal_uart.o(i.HAL_UART_TxCpltCallback) for HAL_UART_TxCpltCallback
    stm32l0xx_hal_uart.o(i.UART_DMATxAbortCallback) refers to stm32l0xx_hal_uart.o(i.HAL_UART_AbortCpltCallback) for HAL_UART_AbortCpltCallback
    stm32l0xx_hal_uart.o(i.UART_DMATxHalfCplt) refers to stm32l0xx_hal_uart.o(i.HAL_UART_TxHalfCpltCallback) for HAL_UART_TxHalfCpltCallback
    stm32l0xx_hal_uart.o(i.UART_DMATxOnlyAbortCallback) refers to stm32l0xx_hal_uart.o(i.HAL_UART_AbortTransmitCpltCallback) for HAL_UART_AbortTransmitCpltCallback
    stm32l0xx_hal_uart.o(i.UART_EndTransmit_IT) refers to stm32l0xx_hal_uart.o(i.HAL_UART_TxCpltCallback) for HAL_UART_TxCpltCallback
    stm32l0xx_hal_uart.o(i.UART_Receive_IT) refers to stm32l0xx_hal_uart.o(i.HAL_UART_RxCpltCallback) for HAL_UART_RxCpltCallback
    stm32l0xx_hal_uart.o(i.UART_SetConfig) refers to stm32l0xx_hal_rcc_ex.o(i.HAL_RCCEx_GetPeriphCLKFreq) for HAL_RCCEx_GetPeriphCLKFreq
    stm32l0xx_hal_uart.o(i.UART_SetConfig) refers to stm32l0xx_hal_rcc.o(i.HAL_RCC_GetPCLK1Freq) for HAL_RCC_GetPCLK1Freq
    stm32l0xx_hal_uart.o(i.UART_SetConfig) refers to stm32l0xx_hal_rcc.o(i.HAL_RCC_GetSysClockFreq) for HAL_RCC_GetSysClockFreq
    stm32l0xx_hal_uart.o(i.UART_SetConfig) refers to stm32l0xx_hal_uart.o(i.__ARM_common_ll_muluu) for __ARM_common_ll_muluu
    stm32l0xx_hal_uart.o(i.UART_SetConfig) refers to uldiv.o(.text) for __aeabi_uldivmod
    stm32l0xx_hal_uart.o(i.UART_SetConfig) refers to uidiv.o(.text) for __aeabi_uidivmod
    stm32l0xx_hal_uart.o(i.UART_SetConfig) refers to stm32l0xx_hal_rcc.o(i.HAL_RCC_GetPCLK2Freq) for HAL_RCC_GetPCLK2Freq
    stm32l0xx_hal_uart.o(i.UART_WaitOnFlagUntilTimeout) refers to stm32l0xx_hal.o(i.HAL_GetTick) for HAL_GetTick
    stm32l0xx_hal_adc.o(i.ADC_ConversionStop) refers to stm32l0xx_hal.o(i.HAL_GetTick) for HAL_GetTick
    stm32l0xx_hal_adc.o(i.ADC_DMAConvCplt) refers to stm32l0xx_hal_adc.o(i.HAL_ADC_ConvCpltCallback) for HAL_ADC_ConvCpltCallback
    stm32l0xx_hal_adc.o(i.ADC_DMAError) refers to stm32l0xx_hal_adc.o(i.HAL_ADC_ErrorCallback) for HAL_ADC_ErrorCallback
    stm32l0xx_hal_adc.o(i.ADC_DMAHalfConvCplt) refers to stm32l0xx_hal_adc.o(i.HAL_ADC_ConvHalfCpltCallback) for HAL_ADC_ConvHalfCpltCallback
    stm32l0xx_hal_adc.o(i.ADC_DelayMicroSecond) refers to uidiv.o(.text) for __aeabi_uidivmod
    stm32l0xx_hal_adc.o(i.ADC_DelayMicroSecond) refers to system_stm32l0xx.o(.data) for SystemCoreClock
    stm32l0xx_hal_adc.o(i.ADC_Disable) refers to stm32l0xx_hal.o(i.HAL_GetTick) for HAL_GetTick
    stm32l0xx_hal_adc.o(i.ADC_Enable) refers to stm32l0xx_hal_adc.o(i.ADC_DelayMicroSecond) for ADC_DelayMicroSecond
    stm32l0xx_hal_adc.o(i.ADC_Enable) refers to stm32l0xx_hal.o(i.HAL_GetTick) for HAL_GetTick
    stm32l0xx_hal_adc.o(i.HAL_ADC_ConfigChannel) refers to stm32l0xx_hal_adc.o(i.ADC_DelayMicroSecond) for ADC_DelayMicroSecond
    stm32l0xx_hal_adc.o(i.HAL_ADC_DeInit) refers to stm32l0xx_hal_adc.o(i.ADC_ConversionStop) for ADC_ConversionStop
    stm32l0xx_hal_adc.o(i.HAL_ADC_DeInit) refers to stm32l0xx_hal_adc.o(i.ADC_Disable) for ADC_Disable
    stm32l0xx_hal_adc.o(i.HAL_ADC_DeInit) refers to stm32l0xx_hal_adc.o(i.HAL_ADC_MspDeInit) for HAL_ADC_MspDeInit
    stm32l0xx_hal_adc.o(i.HAL_ADC_IRQHandler) refers to stm32l0xx_hal_adc.o(i.HAL_ADC_ConvCpltCallback) for HAL_ADC_ConvCpltCallback
    stm32l0xx_hal_adc.o(i.HAL_ADC_IRQHandler) refers to stm32l0xx_hal_adc.o(i.HAL_ADC_LevelOutOfWindowCallback) for HAL_ADC_LevelOutOfWindowCallback
    stm32l0xx_hal_adc.o(i.HAL_ADC_IRQHandler) refers to stm32l0xx_hal_adc.o(i.HAL_ADC_ErrorCallback) for HAL_ADC_ErrorCallback
    stm32l0xx_hal_adc.o(i.HAL_ADC_Init) refers to stm32l0xx_hal_adc.o(i.HAL_ADC_MspInit) for HAL_ADC_MspInit
    stm32l0xx_hal_adc.o(i.HAL_ADC_PollForConversion) refers to stm32l0xx_hal.o(i.HAL_GetTick) for HAL_GetTick
    stm32l0xx_hal_adc.o(i.HAL_ADC_PollForEvent) refers to stm32l0xx_hal.o(i.HAL_GetTick) for HAL_GetTick
    stm32l0xx_hal_adc.o(i.HAL_ADC_Start) refers to stm32l0xx_hal_adc.o(i.ADC_Enable) for ADC_Enable
    stm32l0xx_hal_adc.o(i.HAL_ADC_Start_DMA) refers to stm32l0xx_hal_adc.o(i.ADC_Enable) for ADC_Enable
    stm32l0xx_hal_adc.o(i.HAL_ADC_Start_DMA) refers to stm32l0xx_hal_dma.o(i.HAL_DMA_Start_IT) for HAL_DMA_Start_IT
    stm32l0xx_hal_adc.o(i.HAL_ADC_Start_DMA) refers to stm32l0xx_hal_adc.o(i.ADC_DMAConvCplt) for ADC_DMAConvCplt
    stm32l0xx_hal_adc.o(i.HAL_ADC_Start_DMA) refers to stm32l0xx_hal_adc.o(i.ADC_DMAHalfConvCplt) for ADC_DMAHalfConvCplt
    stm32l0xx_hal_adc.o(i.HAL_ADC_Start_DMA) refers to stm32l0xx_hal_adc.o(i.ADC_DMAError) for ADC_DMAError
    stm32l0xx_hal_adc.o(i.HAL_ADC_Start_IT) refers to stm32l0xx_hal_adc.o(i.ADC_Enable) for ADC_Enable
    stm32l0xx_hal_adc.o(i.HAL_ADC_Stop) refers to stm32l0xx_hal_adc.o(i.ADC_ConversionStop) for ADC_ConversionStop
    stm32l0xx_hal_adc.o(i.HAL_ADC_Stop) refers to stm32l0xx_hal_adc.o(i.ADC_Disable) for ADC_Disable
    stm32l0xx_hal_adc.o(i.HAL_ADC_Stop_DMA) refers to stm32l0xx_hal_adc.o(i.ADC_ConversionStop) for ADC_ConversionStop
    stm32l0xx_hal_adc.o(i.HAL_ADC_Stop_DMA) refers to stm32l0xx_hal_dma.o(i.HAL_DMA_Abort) for HAL_DMA_Abort
    stm32l0xx_hal_adc.o(i.HAL_ADC_Stop_DMA) refers to stm32l0xx_hal_adc.o(i.ADC_Disable) for ADC_Disable
    stm32l0xx_hal_adc.o(i.HAL_ADC_Stop_IT) refers to stm32l0xx_hal_adc.o(i.ADC_ConversionStop) for ADC_ConversionStop
    stm32l0xx_hal_adc.o(i.HAL_ADC_Stop_IT) refers to stm32l0xx_hal_adc.o(i.ADC_Disable) for ADC_Disable
    stm32l0xx_hal_rcc.o(i.HAL_RCC_ClockConfig) refers to stm32l0xx_hal.o(i.HAL_GetTick) for HAL_GetTick
    stm32l0xx_hal_rcc.o(i.HAL_RCC_ClockConfig) refers to stm32l0xx_hal_rcc.o(i.HAL_RCC_GetSysClockFreq) for HAL_RCC_GetSysClockFreq
    stm32l0xx_hal_rcc.o(i.HAL_RCC_ClockConfig) refers to mlm32l0xx_hal_msp.o(i.HAL_InitTick) for HAL_InitTick
    stm32l0xx_hal_rcc.o(i.HAL_RCC_ClockConfig) refers to system_stm32l0xx.o(.constdata) for AHBPrescTable
    stm32l0xx_hal_rcc.o(i.HAL_RCC_ClockConfig) refers to system_stm32l0xx.o(.data) for SystemCoreClock
    stm32l0xx_hal_rcc.o(i.HAL_RCC_DeInit) refers to system_stm32l0xx.o(.data) for SystemCoreClock
    stm32l0xx_hal_rcc.o(i.HAL_RCC_GetHCLKFreq) refers to system_stm32l0xx.o(.data) for SystemCoreClock
    stm32l0xx_hal_rcc.o(i.HAL_RCC_GetPCLK1Freq) refers to stm32l0xx_hal_rcc.o(i.HAL_RCC_GetHCLKFreq) for HAL_RCC_GetHCLKFreq
    stm32l0xx_hal_rcc.o(i.HAL_RCC_GetPCLK1Freq) refers to system_stm32l0xx.o(.constdata) for APBPrescTable
    stm32l0xx_hal_rcc.o(i.HAL_RCC_GetPCLK2Freq) refers to stm32l0xx_hal_rcc.o(i.HAL_RCC_GetHCLKFreq) for HAL_RCC_GetHCLKFreq
    stm32l0xx_hal_rcc.o(i.HAL_RCC_GetPCLK2Freq) refers to system_stm32l0xx.o(.constdata) for APBPrescTable
    stm32l0xx_hal_rcc.o(i.HAL_RCC_GetSysClockFreq) refers to uidiv.o(.text) for __aeabi_uidivmod
    stm32l0xx_hal_rcc.o(i.HAL_RCC_GetSysClockFreq) refers to system_stm32l0xx.o(.constdata) for PLLMulTable
    stm32l0xx_hal_rcc.o(i.HAL_RCC_MCOConfig) refers to memseta.o(.text) for __aeabi_memclr4
    stm32l0xx_hal_rcc.o(i.HAL_RCC_MCOConfig) refers to stm32l0xx_hal_gpio.o(i.HAL_GPIO_Init) for HAL_GPIO_Init
    stm32l0xx_hal_rcc.o(i.HAL_RCC_NMI_IRQHandler) refers to stm32l0xx_hal_rcc.o(i.HAL_RCC_CSSCallback) for HAL_RCC_CSSCallback
    stm32l0xx_hal_rcc.o(i.HAL_RCC_OscConfig) refers to stm32l0xx_hal.o(i.HAL_GetTick) for HAL_GetTick
    stm32l0xx_hal_rcc.o(i.HAL_RCC_OscConfig) refers to stm32l0xx_hal_rcc.o(i.RCC_SetFlashLatencyFromMSIRange) for RCC_SetFlashLatencyFromMSIRange
    stm32l0xx_hal_rcc.o(i.HAL_RCC_OscConfig) refers to mlm32l0xx_hal_msp.o(i.HAL_InitTick) for HAL_InitTick
    stm32l0xx_hal_rcc.o(i.HAL_RCC_OscConfig) refers to system_stm32l0xx.o(.constdata) for AHBPrescTable
    stm32l0xx_hal_rcc.o(i.HAL_RCC_OscConfig) refers to system_stm32l0xx.o(.data) for SystemCoreClock
    stm32l0xx_hal_rcc_ex.o(i.HAL_RCCEx_CRSWaitSynchronization) refers to stm32l0xx_hal.o(i.HAL_GetTick) for HAL_GetTick
    stm32l0xx_hal_rcc_ex.o(i.HAL_RCCEx_CRS_IRQHandler) refers to stm32l0xx_hal_rcc_ex.o(i.HAL_RCCEx_CRS_SyncOkCallback) for HAL_RCCEx_CRS_SyncOkCallback
    stm32l0xx_hal_rcc_ex.o(i.HAL_RCCEx_CRS_IRQHandler) refers to stm32l0xx_hal_rcc_ex.o(i.HAL_RCCEx_CRS_SyncWarnCallback) for HAL_RCCEx_CRS_SyncWarnCallback
    stm32l0xx_hal_rcc_ex.o(i.HAL_RCCEx_CRS_IRQHandler) refers to stm32l0xx_hal_rcc_ex.o(i.HAL_RCCEx_CRS_ExpectedSyncCallback) for HAL_RCCEx_CRS_ExpectedSyncCallback
    stm32l0xx_hal_rcc_ex.o(i.HAL_RCCEx_CRS_IRQHandler) refers to stm32l0xx_hal_rcc_ex.o(i.HAL_RCCEx_CRS_ErrorCallback) for HAL_RCCEx_CRS_ErrorCallback
    stm32l0xx_hal_rcc_ex.o(i.HAL_RCCEx_GetPeriphCLKFreq) refers to uidiv.o(.text) for __aeabi_uidivmod
    stm32l0xx_hal_rcc_ex.o(i.HAL_RCCEx_GetPeriphCLKFreq) refers to stm32l0xx_hal_rcc.o(i.HAL_RCC_GetPCLK2Freq) for HAL_RCC_GetPCLK2Freq
    stm32l0xx_hal_rcc_ex.o(i.HAL_RCCEx_GetPeriphCLKFreq) refers to stm32l0xx_hal_rcc.o(i.HAL_RCC_GetSysClockFreq) for HAL_RCC_GetSysClockFreq
    stm32l0xx_hal_rcc_ex.o(i.HAL_RCCEx_GetPeriphCLKFreq) refers to stm32l0xx_hal_rcc.o(i.HAL_RCC_GetPCLK1Freq) for HAL_RCC_GetPCLK1Freq
    stm32l0xx_hal_rcc_ex.o(i.HAL_RCCEx_GetPeriphCLKFreq) refers to system_stm32l0xx.o(.constdata) for PLLMulTable
    stm32l0xx_hal_rcc_ex.o(i.HAL_RCCEx_LSECSS_IRQHandler) refers to stm32l0xx_hal_rcc_ex.o(i.HAL_RCCEx_LSECSS_Callback) for HAL_RCCEx_LSECSS_Callback
    stm32l0xx_hal_rcc_ex.o(i.HAL_RCCEx_PeriphCLKConfig) refers to stm32l0xx_hal.o(i.HAL_GetTick) for HAL_GetTick
    stm32l0xx_hal.o(i.HAL_DeInit) refers to stm32l0xx_hal.o(i.HAL_MspDeInit) for HAL_MspDeInit
    stm32l0xx_hal.o(i.HAL_Delay) refers to stm32l0xx_hal.o(i.HAL_GetTick) for HAL_GetTick
    stm32l0xx_hal.o(i.HAL_GetTick) refers to stm32l0xx_hal.o(.data) for uwTick
    stm32l0xx_hal.o(i.HAL_IncTick) refers to stm32l0xx_hal.o(.data) for uwTick
    stm32l0xx_hal.o(i.HAL_Init) refers to mlm32l0xx_hal_msp.o(i.HAL_InitTick) for HAL_InitTick
    stm32l0xx_hal.o(i.HAL_Init) refers to mlm32l0xx_hal_msp.o(i.HAL_MspInit) for HAL_MspInit
    stm32l0xx_hal.o(i.HAL_InitTick) refers to uidiv.o(.text) for __aeabi_uidivmod
    stm32l0xx_hal.o(i.HAL_InitTick) refers to stm32l0xx_hal_cortex.o(i.HAL_SYSTICK_Config) for HAL_SYSTICK_Config
    stm32l0xx_hal.o(i.HAL_InitTick) refers to stm32l0xx_hal_cortex.o(i.HAL_NVIC_SetPriority) for HAL_NVIC_SetPriority
    stm32l0xx_hal.o(i.HAL_InitTick) refers to system_stm32l0xx.o(.data) for SystemCoreClock
    stm32l0xx_hal_cortex.o(i.HAL_NVIC_SetPriority) refers to stm32l0xx_hal_cortex.o(i.NVIC_SetPriority) for NVIC_SetPriority
    stm32l0xx_hal_cortex.o(i.HAL_SYSTICK_Config) refers to stm32l0xx_hal_cortex.o(i.NVIC_SetPriority) for NVIC_SetPriority
    stm32l0xx_hal_cortex.o(i.HAL_SYSTICK_IRQHandler) refers to stm32l0xx_hal_cortex.o(i.HAL_SYSTICK_Callback) for HAL_SYSTICK_Callback
    stm32l0xx_hal_gpio.o(i.HAL_GPIO_EXTI_IRQHandler) refers to mlm32l0xx_hal_msp.o(i.HAL_GPIO_EXTI_Callback) for HAL_GPIO_EXTI_Callback
    stm32l0xx_hal_dma.o(i.HAL_DMA_Abort) refers to stm32l0xx_hal.o(i.HAL_GetTick) for HAL_GetTick
    stm32l0xx_hal_dma.o(i.HAL_DMA_PollForTransfer) refers to stm32l0xx_hal.o(i.HAL_GetTick) for HAL_GetTick
    stm32l0xx_hal_dma.o(i.HAL_DMA_Start) refers to stm32l0xx_hal_dma.o(i.DMA_SetConfig) for DMA_SetConfig
    stm32l0xx_hal_dma.o(i.HAL_DMA_Start_IT) refers to stm32l0xx_hal_dma.o(i.DMA_SetConfig) for DMA_SetConfig
    stm32l0xx_hal_pwr.o(i.HAL_PWR_PVD_IRQHandler) refers to stm32l0xx_hal_pwr.o(i.HAL_PWR_PVDCallback) for HAL_PWR_PVDCallback
    stm32l0xx_hal_pwr_ex.o(i.HAL_PWREx_DisableLowPowerRunMode) refers to uidiv.o(.text) for __aeabi_uidivmod
    stm32l0xx_hal_pwr_ex.o(i.HAL_PWREx_DisableLowPowerRunMode) refers to system_stm32l0xx.o(.data) for SystemCoreClock
    stm32l0xx_hal_rtc.o(i.HAL_RTC_AlarmIRQHandler) refers to mlm32l0xx_hal_msp.o(i.HAL_RTC_AlarmAEventCallback) for HAL_RTC_AlarmAEventCallback
    stm32l0xx_hal_rtc.o(i.HAL_RTC_AlarmIRQHandler) refers to stm32l0xx_hal_rtc_ex.o(i.HAL_RTCEx_AlarmBEventCallback) for HAL_RTCEx_AlarmBEventCallback
    stm32l0xx_hal_rtc.o(i.HAL_RTC_DeInit) refers to stm32l0xx_hal_rtc.o(i.RTC_EnterInitMode) for RTC_EnterInitMode
    stm32l0xx_hal_rtc.o(i.HAL_RTC_DeInit) refers to stm32l0xx_hal.o(i.HAL_GetTick) for HAL_GetTick
    stm32l0xx_hal_rtc.o(i.HAL_RTC_DeInit) refers to stm32l0xx_hal_rtc.o(i.HAL_RTC_WaitForSynchro) for HAL_RTC_WaitForSynchro
    stm32l0xx_hal_rtc.o(i.HAL_RTC_DeInit) refers to mlm32l0xx_hal_msp.o(i.HAL_RTC_MspDeInit) for HAL_RTC_MspDeInit
    stm32l0xx_hal_rtc.o(i.HAL_RTC_DeactivateAlarm) refers to stm32l0xx_hal.o(i.HAL_GetTick) for HAL_GetTick
    stm32l0xx_hal_rtc.o(i.HAL_RTC_GetAlarm) refers to stm32l0xx_hal_rtc.o(i.RTC_Bcd2ToByte) for RTC_Bcd2ToByte
    stm32l0xx_hal_rtc.o(i.HAL_RTC_GetDate) refers to stm32l0xx_hal_rtc.o(i.RTC_Bcd2ToByte) for RTC_Bcd2ToByte
    stm32l0xx_hal_rtc.o(i.HAL_RTC_GetTime) refers to stm32l0xx_hal_rtc.o(i.RTC_Bcd2ToByte) for RTC_Bcd2ToByte
    stm32l0xx_hal_rtc.o(i.HAL_RTC_Init) refers to mlm32l0xx_hal_msp.o(i.HAL_RTC_MspInit) for HAL_RTC_MspInit
    stm32l0xx_hal_rtc.o(i.HAL_RTC_Init) refers to stm32l0xx_hal_rtc.o(i.RTC_EnterInitMode) for RTC_EnterInitMode
    stm32l0xx_hal_rtc.o(i.HAL_RTC_PollForAlarmAEvent) refers to stm32l0xx_hal.o(i.HAL_GetTick) for HAL_GetTick
    stm32l0xx_hal_rtc.o(i.HAL_RTC_SetAlarm) refers to stm32l0xx_hal_rtc.o(i.RTC_ByteToBcd2) for RTC_ByteToBcd2
    stm32l0xx_hal_rtc.o(i.HAL_RTC_SetAlarm) refers to stm32l0xx_hal_rtc.o(i.RTC_Bcd2ToByte) for RTC_Bcd2ToByte
    stm32l0xx_hal_rtc.o(i.HAL_RTC_SetAlarm) refers to stm32l0xx_hal.o(i.HAL_GetTick) for HAL_GetTick
    stm32l0xx_hal_rtc.o(i.HAL_RTC_SetAlarm_IT) refers to stm32l0xx_hal_rtc.o(i.RTC_ByteToBcd2) for RTC_ByteToBcd2
    stm32l0xx_hal_rtc.o(i.HAL_RTC_SetAlarm_IT) refers to stm32l0xx_hal_rtc.o(i.RTC_Bcd2ToByte) for RTC_Bcd2ToByte
    stm32l0xx_hal_rtc.o(i.HAL_RTC_SetAlarm_IT) refers to stm32l0xx_hal.o(i.HAL_GetTick) for HAL_GetTick
    stm32l0xx_hal_rtc.o(i.HAL_RTC_SetDate) refers to stm32l0xx_hal_rtc.o(i.RTC_ByteToBcd2) for RTC_ByteToBcd2
    stm32l0xx_hal_rtc.o(i.HAL_RTC_SetDate) refers to stm32l0xx_hal_rtc.o(i.RTC_Bcd2ToByte) for RTC_Bcd2ToByte
    stm32l0xx_hal_rtc.o(i.HAL_RTC_SetDate) refers to stm32l0xx_hal_rtc.o(i.RTC_EnterInitMode) for RTC_EnterInitMode
    stm32l0xx_hal_rtc.o(i.HAL_RTC_SetDate) refers to stm32l0xx_hal_rtc.o(i.HAL_RTC_WaitForSynchro) for HAL_RTC_WaitForSynchro
    stm32l0xx_hal_rtc.o(i.HAL_RTC_SetTime) refers to stm32l0xx_hal_rtc.o(i.RTC_ByteToBcd2) for RTC_ByteToBcd2
    stm32l0xx_hal_rtc.o(i.HAL_RTC_SetTime) refers to stm32l0xx_hal_rtc.o(i.RTC_Bcd2ToByte) for RTC_Bcd2ToByte
    stm32l0xx_hal_rtc.o(i.HAL_RTC_SetTime) refers to stm32l0xx_hal_rtc.o(i.RTC_EnterInitMode) for RTC_EnterInitMode
    stm32l0xx_hal_rtc.o(i.HAL_RTC_SetTime) refers to stm32l0xx_hal_rtc.o(i.HAL_RTC_WaitForSynchro) for HAL_RTC_WaitForSynchro
    stm32l0xx_hal_rtc.o(i.HAL_RTC_WaitForSynchro) refers to stm32l0xx_hal.o(i.HAL_GetTick) for HAL_GetTick
    stm32l0xx_hal_rtc.o(i.RTC_EnterInitMode) refers to stm32l0xx_hal.o(i.HAL_GetTick) for HAL_GetTick
    stm32l0xx_hal_rtc_ex.o(i.HAL_RTCEx_DeactivateRefClock) refers to stm32l0xx_hal_rtc.o(i.RTC_EnterInitMode) for RTC_EnterInitMode
    stm32l0xx_hal_rtc_ex.o(i.HAL_RTCEx_DeactivateWakeUpTimer) refers to stm32l0xx_hal.o(i.HAL_GetTick) for HAL_GetTick
    stm32l0xx_hal_rtc_ex.o(i.HAL_RTCEx_GetTimeStamp) refers to stm32l0xx_hal_rtc.o(i.RTC_Bcd2ToByte) for RTC_Bcd2ToByte
    stm32l0xx_hal_rtc_ex.o(i.HAL_RTCEx_PollForAlarmBEvent) refers to stm32l0xx_hal.o(i.HAL_GetTick) for HAL_GetTick
    stm32l0xx_hal_rtc_ex.o(i.HAL_RTCEx_PollForTamper1Event) refers to stm32l0xx_hal.o(i.HAL_GetTick) for HAL_GetTick
    stm32l0xx_hal_rtc_ex.o(i.HAL_RTCEx_PollForTamper2Event) refers to stm32l0xx_hal.o(i.HAL_GetTick) for HAL_GetTick
    stm32l0xx_hal_rtc_ex.o(i.HAL_RTCEx_PollForTamper3Event) refers to stm32l0xx_hal.o(i.HAL_GetTick) for HAL_GetTick
    stm32l0xx_hal_rtc_ex.o(i.HAL_RTCEx_PollForTimeStampEvent) refers to stm32l0xx_hal.o(i.HAL_GetTick) for HAL_GetTick
    stm32l0xx_hal_rtc_ex.o(i.HAL_RTCEx_PollForWakeUpTimerEvent) refers to stm32l0xx_hal.o(i.HAL_GetTick) for HAL_GetTick
    stm32l0xx_hal_rtc_ex.o(i.HAL_RTCEx_SetRefClock) refers to stm32l0xx_hal_rtc.o(i.RTC_EnterInitMode) for RTC_EnterInitMode
    stm32l0xx_hal_rtc_ex.o(i.HAL_RTCEx_SetSmoothCalib) refers to stm32l0xx_hal.o(i.HAL_GetTick) for HAL_GetTick
    stm32l0xx_hal_rtc_ex.o(i.HAL_RTCEx_SetSynchroShift) refers to stm32l0xx_hal.o(i.HAL_GetTick) for HAL_GetTick
    stm32l0xx_hal_rtc_ex.o(i.HAL_RTCEx_SetSynchroShift) refers to stm32l0xx_hal_rtc.o(i.HAL_RTC_WaitForSynchro) for HAL_RTC_WaitForSynchro
    stm32l0xx_hal_rtc_ex.o(i.HAL_RTCEx_SetWakeUpTimer) refers to stm32l0xx_hal.o(i.HAL_GetTick) for HAL_GetTick
    stm32l0xx_hal_rtc_ex.o(i.HAL_RTCEx_SetWakeUpTimer_IT) refers to stm32l0xx_hal.o(i.HAL_GetTick) for HAL_GetTick
    stm32l0xx_hal_rtc_ex.o(i.HAL_RTCEx_TamperTimeStampIRQHandler) refers to stm32l0xx_hal_rtc_ex.o(i.HAL_RTCEx_TimeStampEventCallback) for HAL_RTCEx_TimeStampEventCallback
    stm32l0xx_hal_rtc_ex.o(i.HAL_RTCEx_TamperTimeStampIRQHandler) refers to stm32l0xx_hal_rtc_ex.o(i.HAL_RTCEx_Tamper1EventCallback) for HAL_RTCEx_Tamper1EventCallback
    stm32l0xx_hal_rtc_ex.o(i.HAL_RTCEx_TamperTimeStampIRQHandler) refers to stm32l0xx_hal_rtc_ex.o(i.HAL_RTCEx_Tamper2EventCallback) for HAL_RTCEx_Tamper2EventCallback
    stm32l0xx_hal_rtc_ex.o(i.HAL_RTCEx_TamperTimeStampIRQHandler) refers to stm32l0xx_hal_rtc_ex.o(i.HAL_RTCEx_Tamper3EventCallback) for HAL_RTCEx_Tamper3EventCallback
    stm32l0xx_hal_rtc_ex.o(i.HAL_RTCEx_WakeUpTimerIRQHandler) refers to stm32l0xx_hal_rtc_ex.o(i.HAL_RTCEx_WakeUpTimerEventCallback) for HAL_RTCEx_WakeUpTimerEventCallback
    stm32l0xx_hal_tim.o(i.HAL_TIM_Base_DeInit) refers to stm32l0xx_hal_tim.o(i.HAL_TIM_Base_MspDeInit) for HAL_TIM_Base_MspDeInit
    stm32l0xx_hal_tim.o(i.HAL_TIM_Base_Init) refers to stm32l0xx_hal_tim.o(i.HAL_TIM_Base_MspInit) for HAL_TIM_Base_MspInit
    stm32l0xx_hal_tim.o(i.HAL_TIM_Base_Init) refers to stm32l0xx_hal_tim.o(i.TIM_Base_SetConfig) for TIM_Base_SetConfig
    stm32l0xx_hal_tim.o(i.HAL_TIM_Base_Start_DMA) refers to stm32l0xx_hal_dma.o(i.HAL_DMA_Start_IT) for HAL_DMA_Start_IT
    stm32l0xx_hal_tim.o(i.HAL_TIM_Base_Start_DMA) refers to stm32l0xx_hal_tim.o(i.TIM_DMAPeriodElapsedCplt) for TIM_DMAPeriodElapsedCplt
    stm32l0xx_hal_tim.o(i.HAL_TIM_Base_Start_DMA) refers to stm32l0xx_hal_tim.o(i.TIM_DMAError) for TIM_DMAError
    stm32l0xx_hal_tim.o(i.HAL_TIM_ConfigClockSource) refers to stm32l0xx_hal_tim.o(i.TIM_ETR_SetConfig) for TIM_ETR_SetConfig
    stm32l0xx_hal_tim.o(i.HAL_TIM_ConfigClockSource) refers to stm32l0xx_hal_tim.o(i.TIM_TI1_ConfigInputStage) for TIM_TI1_ConfigInputStage
    stm32l0xx_hal_tim.o(i.HAL_TIM_ConfigClockSource) refers to stm32l0xx_hal_tim.o(i.TIM_ITRx_SetConfig) for TIM_ITRx_SetConfig
    stm32l0xx_hal_tim.o(i.HAL_TIM_ConfigClockSource) refers to stm32l0xx_hal_tim.o(i.TIM_TI2_ConfigInputStage) for TIM_TI2_ConfigInputStage
    stm32l0xx_hal_tim.o(i.HAL_TIM_ConfigOCrefClear) refers to stm32l0xx_hal_tim.o(i.TIM_ETR_SetConfig) for TIM_ETR_SetConfig
    stm32l0xx_hal_tim.o(i.HAL_TIM_DMABurst_ReadStart) refers to stm32l0xx_hal_dma.o(i.HAL_DMA_Start_IT) for HAL_DMA_Start_IT
    stm32l0xx_hal_tim.o(i.HAL_TIM_DMABurst_ReadStart) refers to stm32l0xx_hal_tim.o(i.TIM_DMAPeriodElapsedCplt) for TIM_DMAPeriodElapsedCplt
    stm32l0xx_hal_tim.o(i.HAL_TIM_DMABurst_ReadStart) refers to stm32l0xx_hal_tim.o(i.TIM_DMAError) for TIM_DMAError
    stm32l0xx_hal_tim.o(i.HAL_TIM_DMABurst_ReadStart) refers to stm32l0xx_hal_tim.o(i.TIM_DMACaptureCplt) for TIM_DMACaptureCplt
    stm32l0xx_hal_tim.o(i.HAL_TIM_DMABurst_ReadStart) refers to stm32l0xx_hal_tim.o(i.TIM_DMATriggerCplt) for TIM_DMATriggerCplt
    stm32l0xx_hal_tim.o(i.HAL_TIM_DMABurst_ReadStop) refers to stm32l0xx_hal_dma.o(i.HAL_DMA_Abort) for HAL_DMA_Abort
    stm32l0xx_hal_tim.o(i.HAL_TIM_DMABurst_WriteStart) refers to stm32l0xx_hal_dma.o(i.HAL_DMA_Start_IT) for HAL_DMA_Start_IT
    stm32l0xx_hal_tim.o(i.HAL_TIM_DMABurst_WriteStart) refers to stm32l0xx_hal_tim.o(i.TIM_DMAPeriodElapsedCplt) for TIM_DMAPeriodElapsedCplt
    stm32l0xx_hal_tim.o(i.HAL_TIM_DMABurst_WriteStart) refers to stm32l0xx_hal_tim.o(i.TIM_DMAError) for TIM_DMAError
    stm32l0xx_hal_tim.o(i.HAL_TIM_DMABurst_WriteStart) refers to stm32l0xx_hal_tim.o(i.TIM_DMADelayPulseCplt) for TIM_DMADelayPulseCplt
    stm32l0xx_hal_tim.o(i.HAL_TIM_DMABurst_WriteStart) refers to stm32l0xx_hal_tim.o(i.TIM_DMATriggerCplt) for TIM_DMATriggerCplt
    stm32l0xx_hal_tim.o(i.HAL_TIM_DMABurst_WriteStop) refers to stm32l0xx_hal_dma.o(i.HAL_DMA_Abort) for HAL_DMA_Abort
    stm32l0xx_hal_tim.o(i.HAL_TIM_Encoder_DeInit) refers to stm32l0xx_hal_tim.o(i.HAL_TIM_Encoder_MspDeInit) for HAL_TIM_Encoder_MspDeInit
    stm32l0xx_hal_tim.o(i.HAL_TIM_Encoder_Init) refers to stm32l0xx_hal_tim.o(i.HAL_TIM_Encoder_MspInit) for HAL_TIM_Encoder_MspInit
    stm32l0xx_hal_tim.o(i.HAL_TIM_Encoder_Init) refers to stm32l0xx_hal_tim.o(i.TIM_Base_SetConfig) for TIM_Base_SetConfig
    stm32l0xx_hal_tim.o(i.HAL_TIM_Encoder_Start) refers to stm32l0xx_hal_tim.o(i.TIM_CCxChannelCmd) for TIM_CCxChannelCmd
    stm32l0xx_hal_tim.o(i.HAL_TIM_Encoder_Start_DMA) refers to stm32l0xx_hal_dma.o(i.HAL_DMA_Start_IT) for HAL_DMA_Start_IT
    stm32l0xx_hal_tim.o(i.HAL_TIM_Encoder_Start_DMA) refers to stm32l0xx_hal_tim.o(i.TIM_CCxChannelCmd) for TIM_CCxChannelCmd
    stm32l0xx_hal_tim.o(i.HAL_TIM_Encoder_Start_DMA) refers to stm32l0xx_hal_tim.o(i.TIM_DMACaptureCplt) for TIM_DMACaptureCplt
    stm32l0xx_hal_tim.o(i.HAL_TIM_Encoder_Start_DMA) refers to stm32l0xx_hal_tim.o(i.TIM_DMAError) for TIM_DMAError
    stm32l0xx_hal_tim.o(i.HAL_TIM_Encoder_Start_IT) refers to stm32l0xx_hal_tim.o(i.TIM_CCxChannelCmd) for TIM_CCxChannelCmd
    stm32l0xx_hal_tim.o(i.HAL_TIM_Encoder_Stop) refers to stm32l0xx_hal_tim.o(i.TIM_CCxChannelCmd) for TIM_CCxChannelCmd
    stm32l0xx_hal_tim.o(i.HAL_TIM_Encoder_Stop_DMA) refers to stm32l0xx_hal_tim.o(i.TIM_CCxChannelCmd) for TIM_CCxChannelCmd
    stm32l0xx_hal_tim.o(i.HAL_TIM_Encoder_Stop_IT) refers to stm32l0xx_hal_tim.o(i.TIM_CCxChannelCmd) for TIM_CCxChannelCmd
    stm32l0xx_hal_tim.o(i.HAL_TIM_IC_ConfigChannel) refers to stm32l0xx_hal_tim.o(i.TIM_TI1_SetConfig) for TIM_TI1_SetConfig
    stm32l0xx_hal_tim.o(i.HAL_TIM_IC_ConfigChannel) refers to stm32l0xx_hal_tim.o(i.TIM_TI2_SetConfig) for TIM_TI2_SetConfig
    stm32l0xx_hal_tim.o(i.HAL_TIM_IC_ConfigChannel) refers to stm32l0xx_hal_tim.o(i.TIM_TI3_SetConfig) for TIM_TI3_SetConfig
    stm32l0xx_hal_tim.o(i.HAL_TIM_IC_ConfigChannel) refers to stm32l0xx_hal_tim.o(i.TIM_TI4_SetConfig) for TIM_TI4_SetConfig
    stm32l0xx_hal_tim.o(i.HAL_TIM_IC_DeInit) refers to stm32l0xx_hal_tim.o(i.HAL_TIM_IC_MspDeInit) for HAL_TIM_IC_MspDeInit
    stm32l0xx_hal_tim.o(i.HAL_TIM_IC_Init) refers to stm32l0xx_hal_tim.o(i.HAL_TIM_IC_MspInit) for HAL_TIM_IC_MspInit
    stm32l0xx_hal_tim.o(i.HAL_TIM_IC_Init) refers to stm32l0xx_hal_tim.o(i.TIM_Base_SetConfig) for TIM_Base_SetConfig
    stm32l0xx_hal_tim.o(i.HAL_TIM_IC_Start) refers to stm32l0xx_hal_tim.o(i.TIM_CCxChannelCmd) for TIM_CCxChannelCmd
    stm32l0xx_hal_tim.o(i.HAL_TIM_IC_Start_DMA) refers to stm32l0xx_hal_dma.o(i.HAL_DMA_Start_IT) for HAL_DMA_Start_IT
    stm32l0xx_hal_tim.o(i.HAL_TIM_IC_Start_DMA) refers to stm32l0xx_hal_tim.o(i.TIM_CCxChannelCmd) for TIM_CCxChannelCmd
    stm32l0xx_hal_tim.o(i.HAL_TIM_IC_Start_DMA) refers to stm32l0xx_hal_tim.o(i.TIM_DMACaptureCplt) for TIM_DMACaptureCplt
    stm32l0xx_hal_tim.o(i.HAL_TIM_IC_Start_DMA) refers to stm32l0xx_hal_tim.o(i.TIM_DMAError) for TIM_DMAError
    stm32l0xx_hal_tim.o(i.HAL_TIM_IC_Start_IT) refers to stm32l0xx_hal_tim.o(i.TIM_CCxChannelCmd) for TIM_CCxChannelCmd
    stm32l0xx_hal_tim.o(i.HAL_TIM_IC_Stop) refers to stm32l0xx_hal_tim.o(i.TIM_CCxChannelCmd) for TIM_CCxChannelCmd
    stm32l0xx_hal_tim.o(i.HAL_TIM_IC_Stop_DMA) refers to stm32l0xx_hal_tim.o(i.TIM_CCxChannelCmd) for TIM_CCxChannelCmd
    stm32l0xx_hal_tim.o(i.HAL_TIM_IC_Stop_IT) refers to stm32l0xx_hal_tim.o(i.TIM_CCxChannelCmd) for TIM_CCxChannelCmd
    stm32l0xx_hal_tim.o(i.HAL_TIM_IRQHandler) refers to stm32l0xx_hal_tim.o(i.HAL_TIM_IC_CaptureCallback) for HAL_TIM_IC_CaptureCallback
    stm32l0xx_hal_tim.o(i.HAL_TIM_IRQHandler) refers to stm32l0xx_hal_tim.o(i.HAL_TIM_OC_DelayElapsedCallback) for HAL_TIM_OC_DelayElapsedCallback
    stm32l0xx_hal_tim.o(i.HAL_TIM_IRQHandler) refers to stm32l0xx_hal_tim.o(i.HAL_TIM_PWM_PulseFinishedCallback) for HAL_TIM_PWM_PulseFinishedCallback
    stm32l0xx_hal_tim.o(i.HAL_TIM_IRQHandler) refers to stm32l0xx_hal_tim.o(i.HAL_TIM_PeriodElapsedCallback) for HAL_TIM_PeriodElapsedCallback
    stm32l0xx_hal_tim.o(i.HAL_TIM_IRQHandler) refers to stm32l0xx_hal_tim.o(i.HAL_TIM_TriggerCallback) for HAL_TIM_TriggerCallback
    stm32l0xx_hal_tim.o(i.HAL_TIM_OC_ConfigChannel) refers to stm32l0xx_hal_tim.o(i.TIM_OC1_SetConfig) for TIM_OC1_SetConfig
    stm32l0xx_hal_tim.o(i.HAL_TIM_OC_ConfigChannel) refers to stm32l0xx_hal_tim.o(i.TIM_OC2_SetConfig) for TIM_OC2_SetConfig
    stm32l0xx_hal_tim.o(i.HAL_TIM_OC_ConfigChannel) refers to stm32l0xx_hal_tim.o(i.TIM_OC3_SetConfig) for TIM_OC3_SetConfig
    stm32l0xx_hal_tim.o(i.HAL_TIM_OC_ConfigChannel) refers to stm32l0xx_hal_tim.o(i.TIM_OC4_SetConfig) for TIM_OC4_SetConfig
    stm32l0xx_hal_tim.o(i.HAL_TIM_OC_DeInit) refers to stm32l0xx_hal_tim.o(i.HAL_TIM_OC_MspDeInit) for HAL_TIM_OC_MspDeInit
    stm32l0xx_hal_tim.o(i.HAL_TIM_OC_Init) refers to stm32l0xx_hal_tim.o(i.HAL_TIM_OC_MspInit) for HAL_TIM_OC_MspInit
    stm32l0xx_hal_tim.o(i.HAL_TIM_OC_Init) refers to stm32l0xx_hal_tim.o(i.TIM_Base_SetConfig) for TIM_Base_SetConfig
    stm32l0xx_hal_tim.o(i.HAL_TIM_OC_Start) refers to stm32l0xx_hal_tim.o(i.TIM_CCxChannelCmd) for TIM_CCxChannelCmd
    stm32l0xx_hal_tim.o(i.HAL_TIM_OC_Start_DMA) refers to stm32l0xx_hal_dma.o(i.HAL_DMA_Start_IT) for HAL_DMA_Start_IT
    stm32l0xx_hal_tim.o(i.HAL_TIM_OC_Start_DMA) refers to stm32l0xx_hal_tim.o(i.TIM_CCxChannelCmd) for TIM_CCxChannelCmd
    stm32l0xx_hal_tim.o(i.HAL_TIM_OC_Start_DMA) refers to stm32l0xx_hal_tim.o(i.TIM_DMADelayPulseCplt) for TIM_DMADelayPulseCplt
    stm32l0xx_hal_tim.o(i.HAL_TIM_OC_Start_DMA) refers to stm32l0xx_hal_tim.o(i.TIM_DMAError) for TIM_DMAError
    stm32l0xx_hal_tim.o(i.HAL_TIM_OC_Start_IT) refers to stm32l0xx_hal_tim.o(i.TIM_CCxChannelCmd) for TIM_CCxChannelCmd
    stm32l0xx_hal_tim.o(i.HAL_TIM_OC_Stop) refers to stm32l0xx_hal_tim.o(i.TIM_CCxChannelCmd) for TIM_CCxChannelCmd
    stm32l0xx_hal_tim.o(i.HAL_TIM_OC_Stop_DMA) refers to stm32l0xx_hal_tim.o(i.TIM_CCxChannelCmd) for TIM_CCxChannelCmd
    stm32l0xx_hal_tim.o(i.HAL_TIM_OC_Stop_IT) refers to stm32l0xx_hal_tim.o(i.TIM_CCxChannelCmd) for TIM_CCxChannelCmd
    stm32l0xx_hal_tim.o(i.HAL_TIM_OnePulse_ConfigChannel) refers to stm32l0xx_hal_tim.o(i.TIM_OC1_SetConfig) for TIM_OC1_SetConfig
    stm32l0xx_hal_tim.o(i.HAL_TIM_OnePulse_ConfigChannel) refers to stm32l0xx_hal_tim.o(i.TIM_OC2_SetConfig) for TIM_OC2_SetConfig
    stm32l0xx_hal_tim.o(i.HAL_TIM_OnePulse_ConfigChannel) refers to stm32l0xx_hal_tim.o(i.TIM_TI1_SetConfig) for TIM_TI1_SetConfig
    stm32l0xx_hal_tim.o(i.HAL_TIM_OnePulse_ConfigChannel) refers to stm32l0xx_hal_tim.o(i.TIM_TI2_SetConfig) for TIM_TI2_SetConfig
    stm32l0xx_hal_tim.o(i.HAL_TIM_OnePulse_DeInit) refers to stm32l0xx_hal_tim.o(i.HAL_TIM_OnePulse_MspDeInit) for HAL_TIM_OnePulse_MspDeInit
    stm32l0xx_hal_tim.o(i.HAL_TIM_OnePulse_Init) refers to stm32l0xx_hal_tim.o(i.HAL_TIM_OnePulse_MspInit) for HAL_TIM_OnePulse_MspInit
    stm32l0xx_hal_tim.o(i.HAL_TIM_OnePulse_Init) refers to stm32l0xx_hal_tim.o(i.TIM_Base_SetConfig) for TIM_Base_SetConfig
    stm32l0xx_hal_tim.o(i.HAL_TIM_OnePulse_Start) refers to stm32l0xx_hal_tim.o(i.TIM_CCxChannelCmd) for TIM_CCxChannelCmd
    stm32l0xx_hal_tim.o(i.HAL_TIM_OnePulse_Start_IT) refers to stm32l0xx_hal_tim.o(i.TIM_CCxChannelCmd) for TIM_CCxChannelCmd
    stm32l0xx_hal_tim.o(i.HAL_TIM_OnePulse_Stop) refers to stm32l0xx_hal_tim.o(i.TIM_CCxChannelCmd) for TIM_CCxChannelCmd
    stm32l0xx_hal_tim.o(i.HAL_TIM_OnePulse_Stop_IT) refers to stm32l0xx_hal_tim.o(i.TIM_CCxChannelCmd) for TIM_CCxChannelCmd
    stm32l0xx_hal_tim.o(i.HAL_TIM_PWM_ConfigChannel) refers to stm32l0xx_hal_tim.o(i.TIM_OC1_SetConfig) for TIM_OC1_SetConfig
    stm32l0xx_hal_tim.o(i.HAL_TIM_PWM_ConfigChannel) refers to stm32l0xx_hal_tim.o(i.TIM_OC2_SetConfig) for TIM_OC2_SetConfig
    stm32l0xx_hal_tim.o(i.HAL_TIM_PWM_ConfigChannel) refers to stm32l0xx_hal_tim.o(i.TIM_OC3_SetConfig) for TIM_OC3_SetConfig
    stm32l0xx_hal_tim.o(i.HAL_TIM_PWM_ConfigChannel) refers to stm32l0xx_hal_tim.o(i.TIM_OC4_SetConfig) for TIM_OC4_SetConfig
    stm32l0xx_hal_tim.o(i.HAL_TIM_PWM_DeInit) refers to stm32l0xx_hal_tim.o(i.HAL_TIM_PWM_MspDeInit) for HAL_TIM_PWM_MspDeInit
    stm32l0xx_hal_tim.o(i.HAL_TIM_PWM_Init) refers to stm32l0xx_hal_tim.o(i.HAL_TIM_PWM_MspInit) for HAL_TIM_PWM_MspInit
    stm32l0xx_hal_tim.o(i.HAL_TIM_PWM_Init) refers to stm32l0xx_hal_tim.o(i.TIM_Base_SetConfig) for TIM_Base_SetConfig
    stm32l0xx_hal_tim.o(i.HAL_TIM_PWM_Start) refers to stm32l0xx_hal_tim.o(i.TIM_CCxChannelCmd) for TIM_CCxChannelCmd
    stm32l0xx_hal_tim.o(i.HAL_TIM_PWM_Start_DMA) refers to stm32l0xx_hal_dma.o(i.HAL_DMA_Start_IT) for HAL_DMA_Start_IT
    stm32l0xx_hal_tim.o(i.HAL_TIM_PWM_Start_DMA) refers to stm32l0xx_hal_tim.o(i.TIM_CCxChannelCmd) for TIM_CCxChannelCmd
    stm32l0xx_hal_tim.o(i.HAL_TIM_PWM_Start_DMA) refers to stm32l0xx_hal_tim.o(i.TIM_DMADelayPulseCplt) for TIM_DMADelayPulseCplt
    stm32l0xx_hal_tim.o(i.HAL_TIM_PWM_Start_DMA) refers to stm32l0xx_hal_tim.o(i.TIM_DMAError) for TIM_DMAError
    stm32l0xx_hal_tim.o(i.HAL_TIM_PWM_Start_IT) refers to stm32l0xx_hal_tim.o(i.TIM_CCxChannelCmd) for TIM_CCxChannelCmd
    stm32l0xx_hal_tim.o(i.HAL_TIM_PWM_Stop) refers to stm32l0xx_hal_tim.o(i.TIM_CCxChannelCmd) for TIM_CCxChannelCmd
    stm32l0xx_hal_tim.o(i.HAL_TIM_PWM_Stop_DMA) refers to stm32l0xx_hal_tim.o(i.TIM_CCxChannelCmd) for TIM_CCxChannelCmd
    stm32l0xx_hal_tim.o(i.HAL_TIM_PWM_Stop_IT) refers to stm32l0xx_hal_tim.o(i.TIM_CCxChannelCmd) for TIM_CCxChannelCmd
    stm32l0xx_hal_tim.o(i.HAL_TIM_SlaveConfigSynchronization) refers to stm32l0xx_hal_tim.o(i.TIM_SlaveTimer_SetConfig) for TIM_SlaveTimer_SetConfig
    stm32l0xx_hal_tim.o(i.HAL_TIM_SlaveConfigSynchronization_IT) refers to stm32l0xx_hal_tim.o(i.TIM_SlaveTimer_SetConfig) for TIM_SlaveTimer_SetConfig
    stm32l0xx_hal_tim.o(i.TIM_DMACaptureCplt) refers to stm32l0xx_hal_tim.o(i.HAL_TIM_IC_CaptureCallback) for HAL_TIM_IC_CaptureCallback
    stm32l0xx_hal_tim.o(i.TIM_DMADelayPulseCplt) refers to stm32l0xx_hal_tim.o(i.HAL_TIM_PWM_PulseFinishedCallback) for HAL_TIM_PWM_PulseFinishedCallback
    stm32l0xx_hal_tim.o(i.TIM_DMAError) refers to stm32l0xx_hal_tim.o(i.HAL_TIM_ErrorCallback) for HAL_TIM_ErrorCallback
    stm32l0xx_hal_tim.o(i.TIM_DMAPeriodElapsedCplt) refers to stm32l0xx_hal_tim.o(i.HAL_TIM_PeriodElapsedCallback) for HAL_TIM_PeriodElapsedCallback
    stm32l0xx_hal_tim.o(i.TIM_DMATriggerCplt) refers to stm32l0xx_hal_tim.o(i.HAL_TIM_TriggerCallback) for HAL_TIM_TriggerCallback
    stm32l0xx_hal_tim.o(i.TIM_SlaveTimer_SetConfig) refers to sx1276.o(i.__ARM_common_switch8) for __ARM_common_switch8
    stm32l0xx_hal_tim.o(i.TIM_SlaveTimer_SetConfig) refers to stm32l0xx_hal_tim.o(i.TIM_ETR_SetConfig) for TIM_ETR_SetConfig
    stm32l0xx_hal_tim.o(i.TIM_SlaveTimer_SetConfig) refers to stm32l0xx_hal_tim.o(i.TIM_TI1_ConfigInputStage) for TIM_TI1_ConfigInputStage
    stm32l0xx_hal_tim.o(i.TIM_SlaveTimer_SetConfig) refers to stm32l0xx_hal_tim.o(i.TIM_TI2_ConfigInputStage) for TIM_TI2_ConfigInputStage
    stm32l0xx_hal_adc_ex.o(i.HAL_ADCEx_Calibration_Start) refers to stm32l0xx_hal.o(i.HAL_GetTick) for HAL_GetTick
    stm32l0xx_hal_adc_ex.o(i.HAL_ADCEx_EnableVREFINT) refers to stm32l0xx_hal.o(i.HAL_GetTick) for HAL_GetTick
    stm32l0xx_hal_adc_ex.o(i.HAL_ADCEx_EnableVREFINTTempSensor) refers to stm32l0xx_hal.o(i.HAL_GetTick) for HAL_GetTick
    stm32l0xx_hal_uart_ex.o(i.HAL_MultiProcessorEx_AddressLength_Set) refers to stm32l0xx_hal_uart.o(i.UART_CheckIdleState) for UART_CheckIdleState
    stm32l0xx_hal_uart_ex.o(i.HAL_RS485Ex_Init) refers to vcom.o(i.HAL_UART_MspInit) for HAL_UART_MspInit
    stm32l0xx_hal_uart_ex.o(i.HAL_RS485Ex_Init) refers to stm32l0xx_hal_uart.o(i.UART_AdvFeatureConfig) for UART_AdvFeatureConfig
    stm32l0xx_hal_uart_ex.o(i.HAL_RS485Ex_Init) refers to stm32l0xx_hal_uart.o(i.UART_SetConfig) for UART_SetConfig
    stm32l0xx_hal_uart_ex.o(i.HAL_RS485Ex_Init) refers to stm32l0xx_hal_uart.o(i.UART_CheckIdleState) for UART_CheckIdleState
    stm32l0xx_hal_uart_ex.o(i.HAL_UARTEx_StopModeWakeUpSourceConfig) refers to stm32l0xx_hal_uart_ex.o(i.UARTEx_Wakeup_AddressConfig) for UARTEx_Wakeup_AddressConfig
    stm32l0xx_hal_uart_ex.o(i.HAL_UARTEx_StopModeWakeUpSourceConfig) refers to stm32l0xx_hal.o(i.HAL_GetTick) for HAL_GetTick
    stm32l0xx_hal_uart_ex.o(i.HAL_UARTEx_StopModeWakeUpSourceConfig) refers to stm32l0xx_hal_uart.o(i.UART_WaitOnFlagUntilTimeout) for UART_WaitOnFlagUntilTimeout
    stm32l0xx_hal_i2c.o(i.HAL_I2C_DeInit) refers to stm32l0xx_hal_i2c.o(i.HAL_I2C_MspDeInit) for HAL_I2C_MspDeInit
    stm32l0xx_hal_i2c.o(i.HAL_I2C_DisableListen_IT) refers to stm32l0xx_hal_i2c.o(i.I2C_Disable_IRQ) for I2C_Disable_IRQ
    stm32l0xx_hal_i2c.o(i.HAL_I2C_ER_IRQHandler) refers to stm32l0xx_hal_i2c.o(i.I2C_ITError) for I2C_ITError
    stm32l0xx_hal_i2c.o(i.HAL_I2C_EnableListen_IT) refers to stm32l0xx_hal_i2c.o(i.I2C_Enable_IRQ) for I2C_Enable_IRQ
    stm32l0xx_hal_i2c.o(i.HAL_I2C_EnableListen_IT) refers to stm32l0xx_hal_i2c.o(i.I2C_Slave_ISR_IT) for I2C_Slave_ISR_IT
    stm32l0xx_hal_i2c.o(i.HAL_I2C_Init) refers to stm32l0xx_hal_i2c.o(i.HAL_I2C_MspInit) for HAL_I2C_MspInit
    stm32l0xx_hal_i2c.o(i.HAL_I2C_IsDeviceReady) refers to stm32l0xx_hal.o(i.HAL_GetTick) for HAL_GetTick
    stm32l0xx_hal_i2c.o(i.HAL_I2C_IsDeviceReady) refers to stm32l0xx_hal_i2c.o(i.I2C_WaitOnFlagUntilTimeout) for I2C_WaitOnFlagUntilTimeout
    stm32l0xx_hal_i2c.o(i.HAL_I2C_Master_Abort_IT) refers to stm32l0xx_hal_i2c.o(i.I2C_Disable_IRQ) for I2C_Disable_IRQ
    stm32l0xx_hal_i2c.o(i.HAL_I2C_Master_Abort_IT) refers to stm32l0xx_hal_i2c.o(i.I2C_TransferConfig) for I2C_TransferConfig
    stm32l0xx_hal_i2c.o(i.HAL_I2C_Master_Abort_IT) refers to stm32l0xx_hal_i2c.o(i.I2C_Enable_IRQ) for I2C_Enable_IRQ
    stm32l0xx_hal_i2c.o(i.HAL_I2C_Master_Receive) refers to stm32l0xx_hal.o(i.HAL_GetTick) for HAL_GetTick
    stm32l0xx_hal_i2c.o(i.HAL_I2C_Master_Receive) refers to stm32l0xx_hal_i2c.o(i.I2C_WaitOnFlagUntilTimeout) for I2C_WaitOnFlagUntilTimeout
    stm32l0xx_hal_i2c.o(i.HAL_I2C_Master_Receive) refers to stm32l0xx_hal_i2c.o(i.I2C_TransferConfig) for I2C_TransferConfig
    stm32l0xx_hal_i2c.o(i.HAL_I2C_Master_Receive) refers to stm32l0xx_hal_i2c.o(i.I2C_WaitOnRXNEFlagUntilTimeout) for I2C_WaitOnRXNEFlagUntilTimeout
    stm32l0xx_hal_i2c.o(i.HAL_I2C_Master_Receive) refers to stm32l0xx_hal_i2c.o(i.I2C_WaitOnSTOPFlagUntilTimeout) for I2C_WaitOnSTOPFlagUntilTimeout
    stm32l0xx_hal_i2c.o(i.HAL_I2C_Master_Receive_DMA) refers to stm32l0xx_hal_dma.o(i.HAL_DMA_Start_IT) for HAL_DMA_Start_IT
    stm32l0xx_hal_i2c.o(i.HAL_I2C_Master_Receive_DMA) refers to stm32l0xx_hal_i2c.o(i.I2C_TransferConfig) for I2C_TransferConfig
    stm32l0xx_hal_i2c.o(i.HAL_I2C_Master_Receive_DMA) refers to stm32l0xx_hal_i2c.o(i.I2C_Enable_IRQ) for I2C_Enable_IRQ
    stm32l0xx_hal_i2c.o(i.HAL_I2C_Master_Receive_DMA) refers to stm32l0xx_hal_i2c.o(i.I2C_Master_ISR_DMA) for I2C_Master_ISR_DMA
    stm32l0xx_hal_i2c.o(i.HAL_I2C_Master_Receive_DMA) refers to stm32l0xx_hal_i2c.o(i.I2C_DMAMasterReceiveCplt) for I2C_DMAMasterReceiveCplt
    stm32l0xx_hal_i2c.o(i.HAL_I2C_Master_Receive_DMA) refers to stm32l0xx_hal_i2c.o(i.I2C_DMAError) for I2C_DMAError
    stm32l0xx_hal_i2c.o(i.HAL_I2C_Master_Receive_DMA) refers to stm32l0xx_hal_i2c.o(i.I2C_Master_ISR_IT) for I2C_Master_ISR_IT
    stm32l0xx_hal_i2c.o(i.HAL_I2C_Master_Receive_IT) refers to stm32l0xx_hal_i2c.o(i.I2C_TransferConfig) for I2C_TransferConfig
    stm32l0xx_hal_i2c.o(i.HAL_I2C_Master_Receive_IT) refers to stm32l0xx_hal_i2c.o(i.I2C_Enable_IRQ) for I2C_Enable_IRQ
    stm32l0xx_hal_i2c.o(i.HAL_I2C_Master_Receive_IT) refers to stm32l0xx_hal_i2c.o(i.I2C_Master_ISR_IT) for I2C_Master_ISR_IT
    stm32l0xx_hal_i2c.o(i.HAL_I2C_Master_Sequential_Receive_IT) refers to stm32l0xx_hal_i2c.o(i.I2C_TransferConfig) for I2C_TransferConfig
    stm32l0xx_hal_i2c.o(i.HAL_I2C_Master_Sequential_Receive_IT) refers to stm32l0xx_hal_i2c.o(i.I2C_Enable_IRQ) for I2C_Enable_IRQ
    stm32l0xx_hal_i2c.o(i.HAL_I2C_Master_Sequential_Receive_IT) refers to stm32l0xx_hal_i2c.o(i.I2C_Master_ISR_IT) for I2C_Master_ISR_IT
    stm32l0xx_hal_i2c.o(i.HAL_I2C_Master_Sequential_Transmit_IT) refers to stm32l0xx_hal_i2c.o(i.I2C_TransferConfig) for I2C_TransferConfig
    stm32l0xx_hal_i2c.o(i.HAL_I2C_Master_Sequential_Transmit_IT) refers to stm32l0xx_hal_i2c.o(i.I2C_Enable_IRQ) for I2C_Enable_IRQ
    stm32l0xx_hal_i2c.o(i.HAL_I2C_Master_Sequential_Transmit_IT) refers to stm32l0xx_hal_i2c.o(i.I2C_Master_ISR_IT) for I2C_Master_ISR_IT
    stm32l0xx_hal_i2c.o(i.HAL_I2C_Master_Transmit) refers to stm32l0xx_hal.o(i.HAL_GetTick) for HAL_GetTick
    stm32l0xx_hal_i2c.o(i.HAL_I2C_Master_Transmit) refers to stm32l0xx_hal_i2c.o(i.I2C_WaitOnFlagUntilTimeout) for I2C_WaitOnFlagUntilTimeout
    stm32l0xx_hal_i2c.o(i.HAL_I2C_Master_Transmit) refers to stm32l0xx_hal_i2c.o(i.I2C_TransferConfig) for I2C_TransferConfig
    stm32l0xx_hal_i2c.o(i.HAL_I2C_Master_Transmit) refers to stm32l0xx_hal_i2c.o(i.I2C_WaitOnTXISFlagUntilTimeout) for I2C_WaitOnTXISFlagUntilTimeout
    stm32l0xx_hal_i2c.o(i.HAL_I2C_Master_Transmit) refers to stm32l0xx_hal_i2c.o(i.I2C_WaitOnSTOPFlagUntilTimeout) for I2C_WaitOnSTOPFlagUntilTimeout
    stm32l0xx_hal_i2c.o(i.HAL_I2C_Master_Transmit_DMA) refers to stm32l0xx_hal_dma.o(i.HAL_DMA_Start_IT) for HAL_DMA_Start_IT
    stm32l0xx_hal_i2c.o(i.HAL_I2C_Master_Transmit_DMA) refers to stm32l0xx_hal_i2c.o(i.I2C_TransferConfig) for I2C_TransferConfig
    stm32l0xx_hal_i2c.o(i.HAL_I2C_Master_Transmit_DMA) refers to stm32l0xx_hal_i2c.o(i.I2C_Enable_IRQ) for I2C_Enable_IRQ
    stm32l0xx_hal_i2c.o(i.HAL_I2C_Master_Transmit_DMA) refers to stm32l0xx_hal_i2c.o(i.I2C_Master_ISR_DMA) for I2C_Master_ISR_DMA
    stm32l0xx_hal_i2c.o(i.HAL_I2C_Master_Transmit_DMA) refers to stm32l0xx_hal_i2c.o(i.I2C_DMAMasterTransmitCplt) for I2C_DMAMasterTransmitCplt
    stm32l0xx_hal_i2c.o(i.HAL_I2C_Master_Transmit_DMA) refers to stm32l0xx_hal_i2c.o(i.I2C_DMAError) for I2C_DMAError
    stm32l0xx_hal_i2c.o(i.HAL_I2C_Master_Transmit_DMA) refers to stm32l0xx_hal_i2c.o(i.I2C_Master_ISR_IT) for I2C_Master_ISR_IT
    stm32l0xx_hal_i2c.o(i.HAL_I2C_Master_Transmit_IT) refers to stm32l0xx_hal_i2c.o(i.I2C_TransferConfig) for I2C_TransferConfig
    stm32l0xx_hal_i2c.o(i.HAL_I2C_Master_Transmit_IT) refers to stm32l0xx_hal_i2c.o(i.I2C_Enable_IRQ) for I2C_Enable_IRQ
    stm32l0xx_hal_i2c.o(i.HAL_I2C_Master_Transmit_IT) refers to stm32l0xx_hal_i2c.o(i.I2C_Master_ISR_IT) for I2C_Master_ISR_IT
    stm32l0xx_hal_i2c.o(i.HAL_I2C_Mem_Read) refers to stm32l0xx_hal.o(i.HAL_GetTick) for HAL_GetTick
    stm32l0xx_hal_i2c.o(i.HAL_I2C_Mem_Read) refers to stm32l0xx_hal_i2c.o(i.I2C_WaitOnFlagUntilTimeout) for I2C_WaitOnFlagUntilTimeout
    stm32l0xx_hal_i2c.o(i.HAL_I2C_Mem_Read) refers to stm32l0xx_hal_i2c.o(i.I2C_RequestMemoryRead) for I2C_RequestMemoryRead
    stm32l0xx_hal_i2c.o(i.HAL_I2C_Mem_Read) refers to stm32l0xx_hal_i2c.o(i.I2C_TransferConfig) for I2C_TransferConfig
    stm32l0xx_hal_i2c.o(i.HAL_I2C_Mem_Read) refers to stm32l0xx_hal_i2c.o(i.I2C_WaitOnSTOPFlagUntilTimeout) for I2C_WaitOnSTOPFlagUntilTimeout
    stm32l0xx_hal_i2c.o(i.HAL_I2C_Mem_Read_DMA) refers to stm32l0xx_hal.o(i.HAL_GetTick) for HAL_GetTick
    stm32l0xx_hal_i2c.o(i.HAL_I2C_Mem_Read_DMA) refers to stm32l0xx_hal_i2c.o(i.I2C_RequestMemoryRead) for I2C_RequestMemoryRead
    stm32l0xx_hal_i2c.o(i.HAL_I2C_Mem_Read_DMA) refers to stm32l0xx_hal_dma.o(i.HAL_DMA_Start_IT) for HAL_DMA_Start_IT
    stm32l0xx_hal_i2c.o(i.HAL_I2C_Mem_Read_DMA) refers to stm32l0xx_hal_i2c.o(i.I2C_TransferConfig) for I2C_TransferConfig
    stm32l0xx_hal_i2c.o(i.HAL_I2C_Mem_Read_DMA) refers to stm32l0xx_hal_i2c.o(i.I2C_Enable_IRQ) for I2C_Enable_IRQ
    stm32l0xx_hal_i2c.o(i.HAL_I2C_Mem_Read_DMA) refers to stm32l0xx_hal_i2c.o(i.I2C_Master_ISR_DMA) for I2C_Master_ISR_DMA
    stm32l0xx_hal_i2c.o(i.HAL_I2C_Mem_Read_DMA) refers to stm32l0xx_hal_i2c.o(i.I2C_DMAMasterReceiveCplt) for I2C_DMAMasterReceiveCplt
    stm32l0xx_hal_i2c.o(i.HAL_I2C_Mem_Read_DMA) refers to stm32l0xx_hal_i2c.o(i.I2C_DMAError) for I2C_DMAError
    stm32l0xx_hal_i2c.o(i.HAL_I2C_Mem_Read_IT) refers to stm32l0xx_hal.o(i.HAL_GetTick) for HAL_GetTick
    stm32l0xx_hal_i2c.o(i.HAL_I2C_Mem_Read_IT) refers to stm32l0xx_hal_i2c.o(i.I2C_RequestMemoryRead) for I2C_RequestMemoryRead
    stm32l0xx_hal_i2c.o(i.HAL_I2C_Mem_Read_IT) refers to stm32l0xx_hal_i2c.o(i.I2C_TransferConfig) for I2C_TransferConfig
    stm32l0xx_hal_i2c.o(i.HAL_I2C_Mem_Read_IT) refers to stm32l0xx_hal_i2c.o(i.I2C_Enable_IRQ) for I2C_Enable_IRQ
    stm32l0xx_hal_i2c.o(i.HAL_I2C_Mem_Read_IT) refers to stm32l0xx_hal_i2c.o(i.I2C_Master_ISR_IT) for I2C_Master_ISR_IT
    stm32l0xx_hal_i2c.o(i.HAL_I2C_Mem_Write) refers to stm32l0xx_hal.o(i.HAL_GetTick) for HAL_GetTick
    stm32l0xx_hal_i2c.o(i.HAL_I2C_Mem_Write) refers to stm32l0xx_hal_i2c.o(i.I2C_WaitOnFlagUntilTimeout) for I2C_WaitOnFlagUntilTimeout
    stm32l0xx_hal_i2c.o(i.HAL_I2C_Mem_Write) refers to stm32l0xx_hal_i2c.o(i.I2C_RequestMemoryWrite) for I2C_RequestMemoryWrite
    stm32l0xx_hal_i2c.o(i.HAL_I2C_Mem_Write) refers to stm32l0xx_hal_i2c.o(i.I2C_TransferConfig) for I2C_TransferConfig
    stm32l0xx_hal_i2c.o(i.HAL_I2C_Mem_Write) refers to stm32l0xx_hal_i2c.o(i.I2C_WaitOnTXISFlagUntilTimeout) for I2C_WaitOnTXISFlagUntilTimeout
    stm32l0xx_hal_i2c.o(i.HAL_I2C_Mem_Write) refers to stm32l0xx_hal_i2c.o(i.I2C_WaitOnSTOPFlagUntilTimeout) for I2C_WaitOnSTOPFlagUntilTimeout
    stm32l0xx_hal_i2c.o(i.HAL_I2C_Mem_Write_DMA) refers to stm32l0xx_hal.o(i.HAL_GetTick) for HAL_GetTick
    stm32l0xx_hal_i2c.o(i.HAL_I2C_Mem_Write_DMA) refers to stm32l0xx_hal_i2c.o(i.I2C_RequestMemoryWrite) for I2C_RequestMemoryWrite
    stm32l0xx_hal_i2c.o(i.HAL_I2C_Mem_Write_DMA) refers to stm32l0xx_hal_dma.o(i.HAL_DMA_Start_IT) for HAL_DMA_Start_IT
    stm32l0xx_hal_i2c.o(i.HAL_I2C_Mem_Write_DMA) refers to stm32l0xx_hal_i2c.o(i.I2C_TransferConfig) for I2C_TransferConfig
    stm32l0xx_hal_i2c.o(i.HAL_I2C_Mem_Write_DMA) refers to stm32l0xx_hal_i2c.o(i.I2C_Enable_IRQ) for I2C_Enable_IRQ
    stm32l0xx_hal_i2c.o(i.HAL_I2C_Mem_Write_DMA) refers to stm32l0xx_hal_i2c.o(i.I2C_Master_ISR_DMA) for I2C_Master_ISR_DMA
    stm32l0xx_hal_i2c.o(i.HAL_I2C_Mem_Write_DMA) refers to stm32l0xx_hal_i2c.o(i.I2C_DMAMasterTransmitCplt) for I2C_DMAMasterTransmitCplt
    stm32l0xx_hal_i2c.o(i.HAL_I2C_Mem_Write_DMA) refers to stm32l0xx_hal_i2c.o(i.I2C_DMAError) for I2C_DMAError
    stm32l0xx_hal_i2c.o(i.HAL_I2C_Mem_Write_IT) refers to stm32l0xx_hal.o(i.HAL_GetTick) for HAL_GetTick
    stm32l0xx_hal_i2c.o(i.HAL_I2C_Mem_Write_IT) refers to stm32l0xx_hal_i2c.o(i.I2C_RequestMemoryWrite) for I2C_RequestMemoryWrite
    stm32l0xx_hal_i2c.o(i.HAL_I2C_Mem_Write_IT) refers to stm32l0xx_hal_i2c.o(i.I2C_TransferConfig) for I2C_TransferConfig
    stm32l0xx_hal_i2c.o(i.HAL_I2C_Mem_Write_IT) refers to stm32l0xx_hal_i2c.o(i.I2C_Enable_IRQ) for I2C_Enable_IRQ
    stm32l0xx_hal_i2c.o(i.HAL_I2C_Mem_Write_IT) refers to stm32l0xx_hal_i2c.o(i.I2C_Master_ISR_IT) for I2C_Master_ISR_IT
    stm32l0xx_hal_i2c.o(i.HAL_I2C_Slave_Receive) refers to stm32l0xx_hal.o(i.HAL_GetTick) for HAL_GetTick
    stm32l0xx_hal_i2c.o(i.HAL_I2C_Slave_Receive) refers to stm32l0xx_hal_i2c.o(i.I2C_WaitOnFlagUntilTimeout) for I2C_WaitOnFlagUntilTimeout
    stm32l0xx_hal_i2c.o(i.HAL_I2C_Slave_Receive) refers to stm32l0xx_hal_i2c.o(i.I2C_WaitOnRXNEFlagUntilTimeout) for I2C_WaitOnRXNEFlagUntilTimeout
    stm32l0xx_hal_i2c.o(i.HAL_I2C_Slave_Receive) refers to stm32l0xx_hal_i2c.o(i.I2C_WaitOnSTOPFlagUntilTimeout) for I2C_WaitOnSTOPFlagUntilTimeout
    stm32l0xx_hal_i2c.o(i.HAL_I2C_Slave_Receive_DMA) refers to stm32l0xx_hal_dma.o(i.HAL_DMA_Start_IT) for HAL_DMA_Start_IT
    stm32l0xx_hal_i2c.o(i.HAL_I2C_Slave_Receive_DMA) refers to stm32l0xx_hal_i2c.o(i.I2C_Enable_IRQ) for I2C_Enable_IRQ
    stm32l0xx_hal_i2c.o(i.HAL_I2C_Slave_Receive_DMA) refers to stm32l0xx_hal_i2c.o(i.I2C_Slave_ISR_DMA) for I2C_Slave_ISR_DMA
    stm32l0xx_hal_i2c.o(i.HAL_I2C_Slave_Receive_DMA) refers to stm32l0xx_hal_i2c.o(i.I2C_DMASlaveReceiveCplt) for I2C_DMASlaveReceiveCplt
    stm32l0xx_hal_i2c.o(i.HAL_I2C_Slave_Receive_DMA) refers to stm32l0xx_hal_i2c.o(i.I2C_DMAError) for I2C_DMAError
    stm32l0xx_hal_i2c.o(i.HAL_I2C_Slave_Receive_IT) refers to stm32l0xx_hal_i2c.o(i.I2C_Enable_IRQ) for I2C_Enable_IRQ
    stm32l0xx_hal_i2c.o(i.HAL_I2C_Slave_Receive_IT) refers to stm32l0xx_hal_i2c.o(i.I2C_Slave_ISR_IT) for I2C_Slave_ISR_IT
    stm32l0xx_hal_i2c.o(i.HAL_I2C_Slave_Sequential_Receive_IT) refers to stm32l0xx_hal_i2c.o(i.I2C_Disable_IRQ) for I2C_Disable_IRQ
    stm32l0xx_hal_i2c.o(i.HAL_I2C_Slave_Sequential_Receive_IT) refers to stm32l0xx_hal_i2c.o(i.I2C_Enable_IRQ) for I2C_Enable_IRQ
    stm32l0xx_hal_i2c.o(i.HAL_I2C_Slave_Sequential_Receive_IT) refers to stm32l0xx_hal_i2c.o(i.I2C_Slave_ISR_IT) for I2C_Slave_ISR_IT
    stm32l0xx_hal_i2c.o(i.HAL_I2C_Slave_Sequential_Transmit_IT) refers to stm32l0xx_hal_i2c.o(i.I2C_Disable_IRQ) for I2C_Disable_IRQ
    stm32l0xx_hal_i2c.o(i.HAL_I2C_Slave_Sequential_Transmit_IT) refers to stm32l0xx_hal_i2c.o(i.I2C_Enable_IRQ) for I2C_Enable_IRQ
    stm32l0xx_hal_i2c.o(i.HAL_I2C_Slave_Sequential_Transmit_IT) refers to stm32l0xx_hal_i2c.o(i.I2C_Slave_ISR_IT) for I2C_Slave_ISR_IT
    stm32l0xx_hal_i2c.o(i.HAL_I2C_Slave_Transmit) refers to stm32l0xx_hal.o(i.HAL_GetTick) for HAL_GetTick
    stm32l0xx_hal_i2c.o(i.HAL_I2C_Slave_Transmit) refers to stm32l0xx_hal_i2c.o(i.I2C_WaitOnFlagUntilTimeout) for I2C_WaitOnFlagUntilTimeout
    stm32l0xx_hal_i2c.o(i.HAL_I2C_Slave_Transmit) refers to stm32l0xx_hal_i2c.o(i.I2C_WaitOnTXISFlagUntilTimeout) for I2C_WaitOnTXISFlagUntilTimeout
    stm32l0xx_hal_i2c.o(i.HAL_I2C_Slave_Transmit) refers to stm32l0xx_hal_i2c.o(i.I2C_WaitOnSTOPFlagUntilTimeout) for I2C_WaitOnSTOPFlagUntilTimeout
    stm32l0xx_hal_i2c.o(i.HAL_I2C_Slave_Transmit_DMA) refers to stm32l0xx_hal_dma.o(i.HAL_DMA_Start_IT) for HAL_DMA_Start_IT
    stm32l0xx_hal_i2c.o(i.HAL_I2C_Slave_Transmit_DMA) refers to stm32l0xx_hal_i2c.o(i.I2C_Enable_IRQ) for I2C_Enable_IRQ
    stm32l0xx_hal_i2c.o(i.HAL_I2C_Slave_Transmit_DMA) refers to stm32l0xx_hal_i2c.o(i.I2C_Slave_ISR_DMA) for I2C_Slave_ISR_DMA
    stm32l0xx_hal_i2c.o(i.HAL_I2C_Slave_Transmit_DMA) refers to stm32l0xx_hal_i2c.o(i.I2C_DMASlaveTransmitCplt) for I2C_DMASlaveTransmitCplt
    stm32l0xx_hal_i2c.o(i.HAL_I2C_Slave_Transmit_DMA) refers to stm32l0xx_hal_i2c.o(i.I2C_DMAError) for I2C_DMAError
    stm32l0xx_hal_i2c.o(i.HAL_I2C_Slave_Transmit_IT) refers to stm32l0xx_hal_i2c.o(i.I2C_Enable_IRQ) for I2C_Enable_IRQ
    stm32l0xx_hal_i2c.o(i.HAL_I2C_Slave_Transmit_IT) refers to stm32l0xx_hal_i2c.o(i.I2C_Slave_ISR_IT) for I2C_Slave_ISR_IT
    stm32l0xx_hal_i2c.o(i.I2C_DMAAbort) refers to stm32l0xx_hal_i2c.o(i.HAL_I2C_AbortCpltCallback) for HAL_I2C_AbortCpltCallback
    stm32l0xx_hal_i2c.o(i.I2C_DMAAbort) refers to stm32l0xx_hal_i2c.o(i.HAL_I2C_ErrorCallback) for HAL_I2C_ErrorCallback
    stm32l0xx_hal_i2c.o(i.I2C_DMAError) refers to stm32l0xx_hal_i2c.o(i.I2C_ITError) for I2C_ITError
    stm32l0xx_hal_i2c.o(i.I2C_DMAMasterReceiveCplt) refers to stm32l0xx_hal_i2c.o(i.I2C_Enable_IRQ) for I2C_Enable_IRQ
    stm32l0xx_hal_i2c.o(i.I2C_DMAMasterReceiveCplt) refers to stm32l0xx_hal_dma.o(i.HAL_DMA_Start_IT) for HAL_DMA_Start_IT
    stm32l0xx_hal_i2c.o(i.I2C_DMAMasterTransmitCplt) refers to stm32l0xx_hal_i2c.o(i.I2C_Enable_IRQ) for I2C_Enable_IRQ
    stm32l0xx_hal_i2c.o(i.I2C_DMAMasterTransmitCplt) refers to stm32l0xx_hal_dma.o(i.HAL_DMA_Start_IT) for HAL_DMA_Start_IT
    stm32l0xx_hal_i2c.o(i.I2C_Enable_IRQ) refers to stm32l0xx_hal_i2c.o(i.I2C_Master_ISR_DMA) for I2C_Master_ISR_DMA
    stm32l0xx_hal_i2c.o(i.I2C_Enable_IRQ) refers to stm32l0xx_hal_i2c.o(i.I2C_Slave_ISR_DMA) for I2C_Slave_ISR_DMA
    stm32l0xx_hal_i2c.o(i.I2C_ITAddrCplt) refers to stm32l0xx_hal_i2c.o(i.HAL_I2C_AddrCallback) for HAL_I2C_AddrCallback
    stm32l0xx_hal_i2c.o(i.I2C_ITAddrCplt) refers to stm32l0xx_hal_i2c.o(i.I2C_Disable_IRQ) for I2C_Disable_IRQ
    stm32l0xx_hal_i2c.o(i.I2C_ITError) refers to stm32l0xx_hal_i2c.o(i.I2C_Disable_IRQ) for I2C_Disable_IRQ
    stm32l0xx_hal_i2c.o(i.I2C_ITError) refers to stm32l0xx_hal_dma.o(i.HAL_DMA_Abort_IT) for HAL_DMA_Abort_IT
    stm32l0xx_hal_i2c.o(i.I2C_ITError) refers to stm32l0xx_hal_i2c.o(i.HAL_I2C_AbortCpltCallback) for HAL_I2C_AbortCpltCallback
    stm32l0xx_hal_i2c.o(i.I2C_ITError) refers to stm32l0xx_hal_i2c.o(i.HAL_I2C_ErrorCallback) for HAL_I2C_ErrorCallback
    stm32l0xx_hal_i2c.o(i.I2C_ITError) refers to stm32l0xx_hal_i2c.o(i.I2C_Slave_ISR_IT) for I2C_Slave_ISR_IT
    stm32l0xx_hal_i2c.o(i.I2C_ITError) refers to stm32l0xx_hal_i2c.o(i.I2C_DMAAbort) for I2C_DMAAbort
    stm32l0xx_hal_i2c.o(i.I2C_ITListenCplt) refers to stm32l0xx_hal_i2c.o(i.I2C_Disable_IRQ) for I2C_Disable_IRQ
    stm32l0xx_hal_i2c.o(i.I2C_ITListenCplt) refers to stm32l0xx_hal_i2c.o(i.HAL_I2C_ListenCpltCallback) for HAL_I2C_ListenCpltCallback
    stm32l0xx_hal_i2c.o(i.I2C_ITMasterCplt) refers to stm32l0xx_hal_i2c.o(i.I2C_Flush_TXDR) for I2C_Flush_TXDR
    stm32l0xx_hal_i2c.o(i.I2C_ITMasterCplt) refers to stm32l0xx_hal_i2c.o(i.I2C_Disable_IRQ) for I2C_Disable_IRQ
    stm32l0xx_hal_i2c.o(i.I2C_ITMasterCplt) refers to stm32l0xx_hal_i2c.o(i.I2C_ITError) for I2C_ITError
    stm32l0xx_hal_i2c.o(i.I2C_ITMasterCplt) refers to stm32l0xx_hal_i2c.o(i.HAL_I2C_MemTxCpltCallback) for HAL_I2C_MemTxCpltCallback
    stm32l0xx_hal_i2c.o(i.I2C_ITMasterCplt) refers to stm32l0xx_hal_i2c.o(i.HAL_I2C_MasterTxCpltCallback) for HAL_I2C_MasterTxCpltCallback
    stm32l0xx_hal_i2c.o(i.I2C_ITMasterCplt) refers to stm32l0xx_hal_i2c.o(i.HAL_I2C_MemRxCpltCallback) for HAL_I2C_MemRxCpltCallback
    stm32l0xx_hal_i2c.o(i.I2C_ITMasterCplt) refers to stm32l0xx_hal_i2c.o(i.HAL_I2C_MasterRxCpltCallback) for HAL_I2C_MasterRxCpltCallback
    stm32l0xx_hal_i2c.o(i.I2C_ITMasterSequentialCplt) refers to stm32l0xx_hal_i2c.o(i.I2C_Disable_IRQ) for I2C_Disable_IRQ
    stm32l0xx_hal_i2c.o(i.I2C_ITMasterSequentialCplt) refers to stm32l0xx_hal_i2c.o(i.HAL_I2C_MasterTxCpltCallback) for HAL_I2C_MasterTxCpltCallback
    stm32l0xx_hal_i2c.o(i.I2C_ITMasterSequentialCplt) refers to stm32l0xx_hal_i2c.o(i.HAL_I2C_MasterRxCpltCallback) for HAL_I2C_MasterRxCpltCallback
    stm32l0xx_hal_i2c.o(i.I2C_ITSlaveCplt) refers to stm32l0xx_hal_i2c.o(i.I2C_Disable_IRQ) for I2C_Disable_IRQ
    stm32l0xx_hal_i2c.o(i.I2C_ITSlaveCplt) refers to stm32l0xx_hal_i2c.o(i.I2C_Flush_TXDR) for I2C_Flush_TXDR
    stm32l0xx_hal_i2c.o(i.I2C_ITSlaveCplt) refers to stm32l0xx_hal_i2c.o(i.I2C_ITError) for I2C_ITError
    stm32l0xx_hal_i2c.o(i.I2C_ITSlaveCplt) refers to stm32l0xx_hal_i2c.o(i.I2C_ITListenCplt) for I2C_ITListenCplt
    stm32l0xx_hal_i2c.o(i.I2C_ITSlaveCplt) refers to stm32l0xx_hal_i2c.o(i.HAL_I2C_ListenCpltCallback) for HAL_I2C_ListenCpltCallback
    stm32l0xx_hal_i2c.o(i.I2C_ITSlaveCplt) refers to stm32l0xx_hal_i2c.o(i.HAL_I2C_SlaveRxCpltCallback) for HAL_I2C_SlaveRxCpltCallback
    stm32l0xx_hal_i2c.o(i.I2C_ITSlaveCplt) refers to stm32l0xx_hal_i2c.o(i.HAL_I2C_SlaveTxCpltCallback) for HAL_I2C_SlaveTxCpltCallback
    stm32l0xx_hal_i2c.o(i.I2C_ITSlaveSequentialCplt) refers to stm32l0xx_hal_i2c.o(i.I2C_Disable_IRQ) for I2C_Disable_IRQ
    stm32l0xx_hal_i2c.o(i.I2C_ITSlaveSequentialCplt) refers to stm32l0xx_hal_i2c.o(i.HAL_I2C_SlaveTxCpltCallback) for HAL_I2C_SlaveTxCpltCallback
    stm32l0xx_hal_i2c.o(i.I2C_ITSlaveSequentialCplt) refers to stm32l0xx_hal_i2c.o(i.HAL_I2C_SlaveRxCpltCallback) for HAL_I2C_SlaveRxCpltCallback
    stm32l0xx_hal_i2c.o(i.I2C_IsAcknowledgeFailed) refers to stm32l0xx_hal.o(i.HAL_GetTick) for HAL_GetTick
    stm32l0xx_hal_i2c.o(i.I2C_IsAcknowledgeFailed) refers to stm32l0xx_hal_i2c.o(i.I2C_Flush_TXDR) for I2C_Flush_TXDR
    stm32l0xx_hal_i2c.o(i.I2C_Master_ISR_DMA) refers to stm32l0xx_hal_i2c.o(i.I2C_Enable_IRQ) for I2C_Enable_IRQ
    stm32l0xx_hal_i2c.o(i.I2C_Master_ISR_DMA) refers to stm32l0xx_hal_i2c.o(i.I2C_Flush_TXDR) for I2C_Flush_TXDR
    stm32l0xx_hal_i2c.o(i.I2C_Master_ISR_DMA) refers to stm32l0xx_hal_i2c.o(i.I2C_TransferConfig) for I2C_TransferConfig
    stm32l0xx_hal_i2c.o(i.I2C_Master_ISR_DMA) refers to stm32l0xx_hal_i2c.o(i.I2C_ITError) for I2C_ITError
    stm32l0xx_hal_i2c.o(i.I2C_Master_ISR_DMA) refers to stm32l0xx_hal_i2c.o(i.I2C_ITMasterCplt) for I2C_ITMasterCplt
    stm32l0xx_hal_i2c.o(i.I2C_Master_ISR_IT) refers to stm32l0xx_hal_i2c.o(i.I2C_Flush_TXDR) for I2C_Flush_TXDR
    stm32l0xx_hal_i2c.o(i.I2C_Master_ISR_IT) refers to stm32l0xx_hal_i2c.o(i.I2C_TransferConfig) for I2C_TransferConfig
    stm32l0xx_hal_i2c.o(i.I2C_Master_ISR_IT) refers to stm32l0xx_hal_i2c.o(i.I2C_ITMasterSequentialCplt) for I2C_ITMasterSequentialCplt
    stm32l0xx_hal_i2c.o(i.I2C_Master_ISR_IT) refers to stm32l0xx_hal_i2c.o(i.I2C_ITError) for I2C_ITError
    stm32l0xx_hal_i2c.o(i.I2C_Master_ISR_IT) refers to stm32l0xx_hal_i2c.o(i.I2C_ITMasterCplt) for I2C_ITMasterCplt
    stm32l0xx_hal_i2c.o(i.I2C_RequestMemoryRead) refers to stm32l0xx_hal_i2c.o(i.I2C_TransferConfig) for I2C_TransferConfig
    stm32l0xx_hal_i2c.o(i.I2C_RequestMemoryRead) refers to stm32l0xx_hal_i2c.o(i.I2C_WaitOnTXISFlagUntilTimeout) for I2C_WaitOnTXISFlagUntilTimeout
    stm32l0xx_hal_i2c.o(i.I2C_RequestMemoryRead) refers to stm32l0xx_hal_i2c.o(i.I2C_WaitOnFlagUntilTimeout) for I2C_WaitOnFlagUntilTimeout
    stm32l0xx_hal_i2c.o(i.I2C_RequestMemoryWrite) refers to stm32l0xx_hal_i2c.o(i.I2C_TransferConfig) for I2C_TransferConfig
    stm32l0xx_hal_i2c.o(i.I2C_RequestMemoryWrite) refers to stm32l0xx_hal_i2c.o(i.I2C_WaitOnTXISFlagUntilTimeout) for I2C_WaitOnTXISFlagUntilTimeout
    stm32l0xx_hal_i2c.o(i.I2C_RequestMemoryWrite) refers to stm32l0xx_hal_i2c.o(i.I2C_WaitOnFlagUntilTimeout) for I2C_WaitOnFlagUntilTimeout
    stm32l0xx_hal_i2c.o(i.I2C_Slave_ISR_DMA) refers to stm32l0xx_hal_i2c.o(i.I2C_ITSlaveCplt) for I2C_ITSlaveCplt
    stm32l0xx_hal_i2c.o(i.I2C_Slave_ISR_IT) refers to stm32l0xx_hal_i2c.o(i.I2C_ITListenCplt) for I2C_ITListenCplt
    stm32l0xx_hal_i2c.o(i.I2C_Slave_ISR_IT) refers to stm32l0xx_hal_i2c.o(i.I2C_Flush_TXDR) for I2C_Flush_TXDR
    stm32l0xx_hal_i2c.o(i.I2C_Slave_ISR_IT) refers to stm32l0xx_hal_i2c.o(i.I2C_ITSlaveSequentialCplt) for I2C_ITSlaveSequentialCplt
    stm32l0xx_hal_i2c.o(i.I2C_Slave_ISR_IT) refers to stm32l0xx_hal_i2c.o(i.I2C_ITAddrCplt) for I2C_ITAddrCplt
    stm32l0xx_hal_i2c.o(i.I2C_Slave_ISR_IT) refers to stm32l0xx_hal_i2c.o(i.I2C_ITSlaveCplt) for I2C_ITSlaveCplt
    stm32l0xx_hal_i2c.o(i.I2C_WaitOnFlagUntilTimeout) refers to stm32l0xx_hal.o(i.HAL_GetTick) for HAL_GetTick
    stm32l0xx_hal_i2c.o(i.I2C_WaitOnRXNEFlagUntilTimeout) refers to stm32l0xx_hal_i2c.o(i.I2C_IsAcknowledgeFailed) for I2C_IsAcknowledgeFailed
    stm32l0xx_hal_i2c.o(i.I2C_WaitOnRXNEFlagUntilTimeout) refers to stm32l0xx_hal.o(i.HAL_GetTick) for HAL_GetTick
    stm32l0xx_hal_i2c.o(i.I2C_WaitOnSTOPFlagUntilTimeout) refers to stm32l0xx_hal_i2c.o(i.I2C_IsAcknowledgeFailed) for I2C_IsAcknowledgeFailed
    stm32l0xx_hal_i2c.o(i.I2C_WaitOnSTOPFlagUntilTimeout) refers to stm32l0xx_hal.o(i.HAL_GetTick) for HAL_GetTick
    stm32l0xx_hal_i2c.o(i.I2C_WaitOnTXISFlagUntilTimeout) refers to stm32l0xx_hal_i2c.o(i.I2C_IsAcknowledgeFailed) for I2C_IsAcknowledgeFailed
    stm32l0xx_hal_i2c.o(i.I2C_WaitOnTXISFlagUntilTimeout) refers to stm32l0xx_hal.o(i.HAL_GetTick) for HAL_GetTick
    startup_stm32l072xx.o(RESET) refers to startup_stm32l072xx.o(STACK) for __initial_sp
    startup_stm32l072xx.o(RESET) refers to startup_stm32l072xx.o(.text) for Reset_Handler
    startup_stm32l072xx.o(RESET) refers to mlm32l0xx_it.o(i.NMI_Handler) for NMI_Handler
    startup_stm32l072xx.o(RESET) refers to mlm32l0xx_it.o(i.HardFault_Handler) for HardFault_Handler
    startup_stm32l072xx.o(RESET) refers to mlm32l0xx_it.o(i.SVC_Handler) for SVC_Handler
    startup_stm32l072xx.o(RESET) refers to mlm32l0xx_it.o(i.PendSV_Handler) for PendSV_Handler
    startup_stm32l072xx.o(RESET) refers to mlm32l0xx_it.o(i.SysTick_Handler) for SysTick_Handler
    startup_stm32l072xx.o(RESET) refers to mlm32l0xx_it.o(i.RTC_IRQHandler) for RTC_IRQHandler
    startup_stm32l072xx.o(RESET) refers to mlm32l0xx_it.o(i.EXTI0_1_IRQHandler) for EXTI0_1_IRQHandler
    startup_stm32l072xx.o(RESET) refers to mlm32l0xx_it.o(i.EXTI2_3_IRQHandler) for EXTI2_3_IRQHandler
    startup_stm32l072xx.o(RESET) refers to mlm32l0xx_it.o(i.EXTI4_15_IRQHandler) for EXTI4_15_IRQHandler
    startup_stm32l072xx.o(RESET) refers to mlm32l0xx_it.o(i.USART2_IRQHandler) for USART2_IRQHandler
    startup_stm32l072xx.o(.text) refers to system_stm32l0xx.o(i.SystemInit) for SystemInit
    startup_stm32l072xx.o(.text) refers to entry.o(.ARM.Collect$$$$00000000) for __main
    debug.o(i.DBG_Init) refers to stm32l0xx_hal_gpio.o(i.HAL_GPIO_Init) for HAL_GPIO_Init
    debug.o(i.DBG_Init) refers to stm32l0xx_hal.o(i.HAL_DBGMCU_DisableDBGSleepMode) for HAL_DBGMCU_DisableDBGSleepMode
    debug.o(i.DBG_Init) refers to stm32l0xx_hal.o(i.HAL_DBGMCU_DisableDBGStopMode) for HAL_DBGMCU_DisableDBGStopMode
    debug.o(i.DBG_Init) refers to stm32l0xx_hal.o(i.HAL_DBGMCU_DisableDBGStandbyMode) for HAL_DBGMCU_DisableDBGStandbyMode
    hw_gpio.o(i.HW_GPIO_Init) refers to stm32l0xx_hal_gpio.o(i.HAL_GPIO_Init) for HAL_GPIO_Init
    hw_gpio.o(i.HW_GPIO_IrqHandler) refers to hw_gpio.o(i.HW_GPIO_GetBitPos) for HW_GPIO_GetBitPos
    hw_gpio.o(i.HW_GPIO_IrqHandler) refers to hw_gpio.o(.bss) for GpioIrq
    hw_gpio.o(i.HW_GPIO_Read) refers to stm32l0xx_hal_gpio.o(i.HAL_GPIO_ReadPin) for HAL_GPIO_ReadPin
    hw_gpio.o(i.HW_GPIO_SetIrq) refers to hw_gpio.o(i.HW_GPIO_GetBitPos) for HW_GPIO_GetBitPos
    hw_gpio.o(i.HW_GPIO_SetIrq) refers to mlm32l0xx_hal_msp.o(i.MSP_GetIRQn) for MSP_GetIRQn
    hw_gpio.o(i.HW_GPIO_SetIrq) refers to stm32l0xx_hal_cortex.o(i.HAL_NVIC_SetPriority) for HAL_NVIC_SetPriority
    hw_gpio.o(i.HW_GPIO_SetIrq) refers to stm32l0xx_hal_cortex.o(i.HAL_NVIC_EnableIRQ) for HAL_NVIC_EnableIRQ
    hw_gpio.o(i.HW_GPIO_SetIrq) refers to hw_gpio.o(.bss) for GpioIrq
    hw_gpio.o(i.HW_GPIO_Write) refers to stm32l0xx_hal_gpio.o(i.HAL_GPIO_WritePin) for HAL_GPIO_WritePin
    hw_rtc.o(i.HW_RTC_DelayMs) refers to hw_rtc.o(i.HW_RTC_ms2Tick) for HW_RTC_ms2Tick
    hw_rtc.o(i.HW_RTC_DelayMs) refers to hw_rtc.o(i.HW_RTC_GetTimerValue) for HW_RTC_GetTimerValue
    hw_rtc.o(i.HW_RTC_GetCalendarValue) refers to stm32l0xx_hal_rtc.o(i.HAL_RTC_GetTime) for HAL_RTC_GetTime
    hw_rtc.o(i.HW_RTC_GetCalendarValue) refers to stm32l0xx_hal_rtc.o(i.HAL_RTC_GetDate) for HAL_RTC_GetDate
    hw_rtc.o(i.HW_RTC_GetCalendarValue) refers to hw_rtc.o(.bss) for RtcHandle
    hw_rtc.o(i.HW_RTC_GetTimerContext) refers to hw_rtc.o(.bss) for RtcTimerContext
    hw_rtc.o(i.HW_RTC_GetTimerElapsedTime) refers to hw_rtc.o(i.HW_RTC_GetCalendarValue) for HW_RTC_GetCalendarValue
    hw_rtc.o(i.HW_RTC_GetTimerElapsedTime) refers to hw_rtc.o(.bss) for RtcTimerContext
    hw_rtc.o(i.HW_RTC_GetTimerValue) refers to hw_rtc.o(i.HW_RTC_GetCalendarValue) for HW_RTC_GetCalendarValue
    hw_rtc.o(i.HW_RTC_Init) refers to hw_rtc.o(i.HW_RTC_SetConfig) for HW_RTC_SetConfig
    hw_rtc.o(i.HW_RTC_Init) refers to hw_rtc.o(i.HW_RTC_SetAlarmConfig) for HW_RTC_SetAlarmConfig
    hw_rtc.o(i.HW_RTC_Init) refers to hw_rtc.o(i.HW_RTC_SetTimerContext) for HW_RTC_SetTimerContext
    hw_rtc.o(i.HW_RTC_Init) refers to hw_rtc.o(.data) for HW_RTC_Initalized
    hw_rtc.o(i.HW_RTC_IrqHandler) refers to low_power_manager.o(i.LPM_SetStopMode) for LPM_SetStopMode
    hw_rtc.o(i.HW_RTC_IrqHandler) refers to mlm32l0xx_hal_msp.o(i.HAL_RTC_AlarmAEventCallback) for HAL_RTC_AlarmAEventCallback
    hw_rtc.o(i.HW_RTC_IrqHandler) refers to hw_rtc.o(.bss) for RtcHandle
    hw_rtc.o(i.HW_RTC_SetAlarm) refers to hw_rtc.o(i.HW_RTC_GetTimerElapsedTime) for HW_RTC_GetTimerElapsedTime
    hw_rtc.o(i.HW_RTC_SetAlarm) refers to low_power_manager.o(i.LPM_SetStopMode) for LPM_SetStopMode
    hw_rtc.o(i.HW_RTC_SetAlarm) refers to low_power_manager.o(i.LPM_GetMode) for LPM_GetMode
    hw_rtc.o(i.HW_RTC_SetAlarm) refers to hw_rtc.o(i.HW_RTC_StartWakeUpAlarm) for HW_RTC_StartWakeUpAlarm
    hw_rtc.o(i.HW_RTC_SetAlarm) refers to hw_rtc.o(.data) for McuWakeUpTimeCal
    hw_rtc.o(i.HW_RTC_SetAlarmConfig) refers to stm32l0xx_hal_rtc.o(i.HAL_RTC_DeactivateAlarm) for HAL_RTC_DeactivateAlarm
    hw_rtc.o(i.HW_RTC_SetAlarmConfig) refers to hw_rtc.o(.bss) for RtcHandle
    hw_rtc.o(i.HW_RTC_SetConfig) refers to stm32l0xx_hal_rtc.o(i.HAL_RTC_Init) for HAL_RTC_Init
    hw_rtc.o(i.HW_RTC_SetConfig) refers to stm32l0xx_hal_rtc.o(i.HAL_RTC_SetDate) for HAL_RTC_SetDate
    hw_rtc.o(i.HW_RTC_SetConfig) refers to stm32l0xx_hal_rtc.o(i.HAL_RTC_SetTime) for HAL_RTC_SetTime
    hw_rtc.o(i.HW_RTC_SetConfig) refers to stm32l0xx_hal_rtc_ex.o(i.HAL_RTCEx_EnableBypassShadow) for HAL_RTCEx_EnableBypassShadow
    hw_rtc.o(i.HW_RTC_SetConfig) refers to hw_rtc.o(.bss) for RtcHandle
    hw_rtc.o(i.HW_RTC_SetTimerContext) refers to hw_rtc.o(i.HW_RTC_GetCalendarValue) for HW_RTC_GetCalendarValue
    hw_rtc.o(i.HW_RTC_SetTimerContext) refers to hw_rtc.o(.bss) for RtcTimerContext
    hw_rtc.o(i.HW_RTC_StartWakeUpAlarm) refers to memcpya.o(.text) for __aeabi_memcpy4
    hw_rtc.o(i.HW_RTC_StartWakeUpAlarm) refers to hw_rtc.o(i.HW_RTC_StopAlarm) for HW_RTC_StopAlarm
    hw_rtc.o(i.HW_RTC_StartWakeUpAlarm) refers to idiv.o(.text) for __aeabi_idivmod
    hw_rtc.o(i.HW_RTC_StartWakeUpAlarm) refers to stm32l0xx_hal_rtc.o(i.HAL_RTC_SetAlarm_IT) for HAL_RTC_SetAlarm_IT
    hw_rtc.o(i.HW_RTC_StartWakeUpAlarm) refers to hw_rtc.o(.bss) for RtcTimerContext
    hw_rtc.o(i.HW_RTC_StartWakeUpAlarm) refers to hw_rtc.o(.constdata) for DaysInMonthLeapYear
    hw_rtc.o(i.HW_RTC_StopAlarm) refers to stm32l0xx_hal_rtc.o(i.HAL_RTC_DeactivateAlarm) for HAL_RTC_DeactivateAlarm
    hw_rtc.o(i.HW_RTC_StopAlarm) refers to hw_rtc.o(.bss) for RtcHandle
    hw_rtc.o(i.HW_RTC_Tick2ms) refers to stm32l0xx_hal_uart.o(i.__ARM_common_ll_muluu) for __ARM_common_ll_muluu
    hw_rtc.o(i.HW_RTC_Tick2ms) refers to uldiv.o(.text) for __aeabi_uldivmod
    hw_rtc.o(i.HW_RTC_getMcuWakeUpTime) refers to hw_rtc.o(.data) for McuWakeUpTimeCal
    hw_rtc.o(i.HW_RTC_ms2Tick) refers to stm32l0xx_hal_uart.o(i.__ARM_common_ll_muluu) for __ARM_common_ll_muluu
    hw_rtc.o(i.HW_RTC_ms2Tick) refers to uldiv.o(.text) for __aeabi_uldivmod
    hw_rtc.o(i.HW_RTC_setMcuWakeUpTime) refers to stm32l0xx_hal_cortex.o(i.HAL_NVIC_GetPendingIRQ) for HAL_NVIC_GetPendingIRQ
    hw_rtc.o(i.HW_RTC_setMcuWakeUpTime) refers to hw_rtc.o(i.HW_RTC_GetCalendarValue) for HW_RTC_GetCalendarValue
    hw_rtc.o(i.HW_RTC_setMcuWakeUpTime) refers to stm32l0xx_hal_rtc.o(i.HAL_RTC_GetAlarm) for HAL_RTC_GetAlarm
    hw_rtc.o(i.HW_RTC_setMcuWakeUpTime) refers to hw_rtc.o(.data) for McuWakeUpTimeInitialized
    hw_rtc.o(i.HW_RTC_setMcuWakeUpTime) refers to hw_rtc.o(.bss) for RTC_AlarmStructure
    hw_spi.o(i.HW_SPI_DeInit) refers to memseta.o(.text) for __aeabi_memclr4
    hw_spi.o(i.HW_SPI_DeInit) refers to stm32l0xx_hal_spi.o(i.HAL_SPI_DeInit) for HAL_SPI_DeInit
    hw_spi.o(i.HW_SPI_DeInit) refers to hw_gpio.o(i.HW_GPIO_Init) for HW_GPIO_Init
    hw_spi.o(i.HW_SPI_DeInit) refers to hw_gpio.o(i.HW_GPIO_Write) for HW_GPIO_Write
    hw_spi.o(i.HW_SPI_DeInit) refers to hw_spi.o(.bss) for hspi
    hw_spi.o(i.HW_SPI_InOut) refers to stm32l0xx_hal_spi.o(i.HAL_SPI_TransmitReceive) for HAL_SPI_TransmitReceive
    hw_spi.o(i.HW_SPI_InOut) refers to hw_spi.o(.bss) for hspi
    hw_spi.o(i.HW_SPI_Init) refers to memseta.o(.text) for __aeabi_memclr4
    hw_spi.o(i.HW_SPI_Init) refers to hw_spi.o(i.SpiFrequency) for SpiFrequency
    hw_spi.o(i.HW_SPI_Init) refers to stm32l0xx_hal_spi.o(i.HAL_SPI_Init) for HAL_SPI_Init
    hw_spi.o(i.HW_SPI_Init) refers to debug.o(i.Error_Handler) for Error_Handler
    hw_spi.o(i.HW_SPI_Init) refers to hw_gpio.o(i.HW_GPIO_Init) for HW_GPIO_Init
    hw_spi.o(i.HW_SPI_Init) refers to hw_gpio.o(i.HW_GPIO_Write) for HW_GPIO_Write
    hw_spi.o(i.HW_SPI_Init) refers to hw_spi.o(.bss) for hspi
    hw_spi.o(i.SpiFrequency) refers to system_stm32l0xx.o(.data) for SystemCoreClock
    main.o(i.EnterStandbyMode_RTC_config) refers to stm32l0xx_hal_rtc.o(i.HAL_RTC_Init) for HAL_RTC_Init
    main.o(i.EnterStandbyMode_RTC_config) refers to b-l072z-lrwan1.o(i.BSP_LED_On) for BSP_LED_On
    main.o(i.EnterStandbyMode_RTC_config) refers to debug.o(i.Error_Handler) for Error_Handler
    main.o(i.EnterStandbyMode_RTC_config) refers to low_power_manager.o(.bss) for RtcHandle
    main.o(i.OnRxDone) refers to memcpya.o(.text) for __aeabi_memcpy
    main.o(i.OnRxDone) refers to vcom.o(i.vcom_Send) for vcom_Send
    main.o(i.OnRxDone) refers to b-l072z-lrwan1.o(i.BSP_LED_Toggle) for BSP_LED_Toggle
    main.o(i.OnRxDone) refers to mlm32l07x01.o(.constdata) for Radio
    main.o(i.OnRxDone) refers to main.o(.data) for BufferSize
    main.o(i.OnRxDone) refers to main.o(.bss) for Buffer
    main.o(i.OnRxError) refers to vcom.o(i.vcom_Send) for vcom_Send
    main.o(i.OnRxError) refers to mlm32l07x01.o(.constdata) for Radio
    main.o(i.OnRxError) refers to main.o(.data) for State
    main.o(i.OnRxTimeout) refers to mlm32l07x01.o(.constdata) for Radio
    main.o(i.OnRxTimeout) refers to main.o(.data) for State
    main.o(i.OnTxDone) refers to b-l072z-lrwan1.o(i.BSP_LED_Toggle) for BSP_LED_Toggle
    main.o(i.OnTxDone) refers to mlm32l07x01.o(.constdata) for Radio
    main.o(i.OnTxDone) refers to main.o(.data) for isMaster
    main.o(i.OnTxTimeout) refers to vcom.o(i.vcom_Send) for vcom_Send
    main.o(i.OnTxTimeout) refers to b-l072z-lrwan1.o(i.BSP_LED_Toggle) for BSP_LED_Toggle
    main.o(i.OnTxTimeout) refers to mlm32l07x01.o(.constdata) for Radio
    main.o(i.OnTxTimeout) refers to main.o(.data) for State
    main.o(i.OnledEvent) refers to b-l072z-lrwan1.o(i.BSP_LED_Toggle) for BSP_LED_Toggle
    main.o(i.OnledEvent) refers to timeserver.o(i.TimerStart) for TimerStart
    main.o(i.OnledEvent) refers to main.o(.bss) for timerLed
    main.o(i.RTC_AlarmConfig) refers to memseta.o(.text) for __aeabi_memclr4
    main.o(i.RTC_AlarmConfig) refers to vcom.o(i.vcom_Send) for vcom_Send
    main.o(i.RTC_AlarmConfig) refers to debug.o(i.Error_Handler) for Error_Handler
    main.o(i.RTC_AlarmConfig) refers to stm32l0xx_hal_rtc.o(i.HAL_RTC_SetDate) for HAL_RTC_SetDate
    main.o(i.RTC_AlarmConfig) refers to stm32l0xx_hal_rtc.o(i.HAL_RTC_SetTime) for HAL_RTC_SetTime
    main.o(i.RTC_AlarmConfig) refers to stm32l0xx_hal_rtc.o(i.HAL_RTC_SetAlarm_IT) for HAL_RTC_SetAlarm_IT
    main.o(i.RTC_AlarmConfig) refers to low_power_manager.o(.bss) for RtcHandle
    main.o(i.main) refers to stm32l0xx_hal.o(i.HAL_Init) for HAL_Init
    main.o(i.main) refers to mlm32l0xx_hw.o(i.SystemClock_Config) for SystemClock_Config
    main.o(i.main) refers to debug.o(i.DBG_Init) for DBG_Init
    main.o(i.main) refers to mlm32l0xx_hw.o(i.HW_Init) for HW_Init
    main.o(i.main) refers to vcom.o(i.vcom_Send) for vcom_Send
    main.o(i.main) refers to timeserver.o(i.TimerInit) for TimerInit
    main.o(i.main) refers to timeserver.o(i.TimerSetValue) for TimerSetValue
    main.o(i.main) refers to timeserver.o(i.TimerStart) for TimerStart
    main.o(i.main) refers to b-l072z-lrwan1.o(i.BSP_LED_Toggle) for BSP_LED_Toggle
    main.o(i.main) refers to delay.o(i.DelayMs) for DelayMs
    main.o(i.main) refers to sx1276.o(i.__ARM_common_switch8) for __ARM_common_switch8
    main.o(i.main) refers to strncmp.o(.text) for strncmp
    main.o(i.main) refers to main.o(i.EnterStandbyMode_RTC_config) for EnterStandbyMode_RTC_config
    main.o(i.main) refers to main.o(i.RTC_AlarmConfig) for RTC_AlarmConfig
    main.o(i.main) refers to stm32l0xx_hal_pwr.o(i.HAL_PWR_EnterSTANDBYMode) for HAL_PWR_EnterSTANDBYMode
    main.o(i.main) refers to main.o(.data) for PongMsg
    main.o(i.main) refers to main.o(.bss) for LoRaCMD
    main.o(i.main) refers to main.o(i.OnledEvent) for OnledEvent
    main.o(i.main) refers to main.o(i.OnTxDone) for OnTxDone
    main.o(i.main) refers to main.o(i.OnRxDone) for OnRxDone
    main.o(i.main) refers to main.o(i.OnTxTimeout) for OnTxTimeout
    main.o(i.main) refers to main.o(i.OnRxTimeout) for OnRxTimeout
    main.o(i.main) refers to main.o(i.OnRxError) for OnRxError
    main.o(i.main) refers to mlm32l07x01.o(.constdata) for Radio
    vcom.o(i.HAL_UART_MspDeInit) refers to vcom.o(i.vcom_IoDeInit) for vcom_IoDeInit
    vcom.o(i.HAL_UART_MspInit) refers to vcom.o(i.vcom_IoInit) for vcom_IoInit
    vcom.o(i.vcom_DeInit) refers to stm32l0xx_hal_uart.o(i.HAL_UART_DeInit) for HAL_UART_DeInit
    vcom.o(i.vcom_DeInit) refers to vcom.o(.bss) for UartHandle
    vcom.o(i.vcom_Init) refers to stm32l0xx_hal_uart.o(i.HAL_UART_Init) for HAL_UART_Init
    vcom.o(i.vcom_Init) refers to debug.o(i.Error_Handler) for Error_Handler
    vcom.o(i.vcom_Init) refers to stm32l0xx_hal_cortex.o(i.HAL_NVIC_SetPriority) for HAL_NVIC_SetPriority
    vcom.o(i.vcom_Init) refers to stm32l0xx_hal_cortex.o(i.HAL_NVIC_EnableIRQ) for HAL_NVIC_EnableIRQ
    vcom.o(i.vcom_Init) refers to vcom.o(.bss) for UartHandle
    vcom.o(i.vcom_IoDeInit) refers to memseta.o(.text) for __aeabi_memclr4
    vcom.o(i.vcom_IoDeInit) refers to stm32l0xx_hal_gpio.o(i.HAL_GPIO_Init) for HAL_GPIO_Init
    vcom.o(i.vcom_IoInit) refers to memseta.o(.text) for __aeabi_memclr4
    vcom.o(i.vcom_IoInit) refers to stm32l0xx_hal_gpio.o(i.HAL_GPIO_Init) for HAL_GPIO_Init
    vcom.o(i.vcom_Print) refers to stm32l0xx_hal_uart.o(i.HAL_UART_Transmit) for HAL_UART_Transmit
    vcom.o(i.vcom_Print) refers to stm32l0xx_hal_cortex.o(i.HAL_NVIC_ClearPendingIRQ) for HAL_NVIC_ClearPendingIRQ
    vcom.o(i.vcom_Print) refers to vcom.o(.bss) for buff
    vcom.o(i.vcom_Print) refers to vcom.o(.data) for ir
    vcom.o(i.vcom_Send) refers to printfa.o(i.__0vsprintf) for vsprintf
    vcom.o(i.vcom_Send) refers to memcpya.o(.text) for __aeabi_memcpy
    vcom.o(i.vcom_Send) refers to stm32l0xx_hal_cortex.o(i.HAL_NVIC_SetPendingIRQ) for HAL_NVIC_SetPendingIRQ
    vcom.o(i.vcom_Send) refers to vcom.o(.data) for iw
    vcom.o(i.vcom_Send) refers to vcom.o(.bss) for buff
    vcom.o(i.vcom_Send_Lp) refers to printfa.o(i.__0vsprintf) for vsprintf
    vcom.o(i.vcom_Send_Lp) refers to memcpya.o(.text) for __aeabi_memcpy
    vcom.o(i.vcom_Send_Lp) refers to vcom.o(.data) for iw
    vcom.o(i.vcom_Send_Lp) refers to vcom.o(.bss) for buff
    mlm32l0xx_hal_msp.o(i.HAL_Delay) refers to delay.o(i.DelayMs) for DelayMs
    mlm32l0xx_hal_msp.o(i.HAL_GPIO_EXTI_Callback) refers to hw_gpio.o(i.HW_GPIO_IrqHandler) for HW_GPIO_IrqHandler
    mlm32l0xx_hal_msp.o(i.HAL_MspInit) refers to stm32l0xx_hal_pwr.o(i.HAL_PWR_DisablePVD) for HAL_PWR_DisablePVD
    mlm32l0xx_hal_msp.o(i.HAL_MspInit) refers to stm32l0xx_hal_pwr_ex.o(i.HAL_PWREx_EnableUltraLowPower) for HAL_PWREx_EnableUltraLowPower
    mlm32l0xx_hal_msp.o(i.HAL_MspInit) refers to stm32l0xx_hal_pwr_ex.o(i.HAL_PWREx_EnableFastWakeUp) for HAL_PWREx_EnableFastWakeUp
    mlm32l0xx_hal_msp.o(i.HAL_RTC_AlarmAEventCallback) refers to timeserver.o(i.TimerIrqHandler) for TimerIrqHandler
    mlm32l0xx_hal_msp.o(i.HAL_RTC_MspInit) refers to stm32l0xx_hal_rcc.o(i.HAL_RCC_OscConfig) for HAL_RCC_OscConfig
    mlm32l0xx_hal_msp.o(i.HAL_RTC_MspInit) refers to debug.o(i.Error_Handler) for Error_Handler
    mlm32l0xx_hal_msp.o(i.HAL_RTC_MspInit) refers to stm32l0xx_hal_rcc_ex.o(i.HAL_RCCEx_PeriphCLKConfig) for HAL_RCCEx_PeriphCLKConfig
    mlm32l0xx_hal_msp.o(i.HAL_RTC_MspInit) refers to stm32l0xx_hal_cortex.o(i.HAL_NVIC_SetPriority) for HAL_NVIC_SetPriority
    mlm32l0xx_hal_msp.o(i.HAL_RTC_MspInit) refers to stm32l0xx_hal_cortex.o(i.HAL_NVIC_EnableIRQ) for HAL_NVIC_EnableIRQ
    mlm32l0xx_it.o(i.EXTI0_1_IRQHandler) refers to stm32l0xx_hal_gpio.o(i.HAL_GPIO_EXTI_IRQHandler) for HAL_GPIO_EXTI_IRQHandler
    mlm32l0xx_it.o(i.EXTI2_3_IRQHandler) refers to stm32l0xx_hal_gpio.o(i.HAL_GPIO_EXTI_IRQHandler) for HAL_GPIO_EXTI_IRQHandler
    mlm32l0xx_it.o(i.EXTI4_15_IRQHandler) refers to stm32l0xx_hal_gpio.o(i.HAL_GPIO_EXTI_IRQHandler) for HAL_GPIO_EXTI_IRQHandler
    mlm32l0xx_it.o(i.RTC_IRQHandler) refers to hw_rtc.o(i.HW_RTC_IrqHandler) for HW_RTC_IrqHandler
    mlm32l0xx_it.o(i.SysTick_Handler) refers to stm32l0xx_hal.o(i.HAL_IncTick) for HAL_IncTick
    mlm32l0xx_it.o(i.USART2_IRQHandler) refers to vcom.o(i.vcom_Print) for vcom_Print
    mlm32l0xx_hw.o(i.HW_AdcDeInit) refers to mlm32l0xx_hw.o(.data) for AdcInitialized
    mlm32l0xx_hw.o(i.HW_AdcInit) refers to stm32l0xx_hal_adc.o(i.HAL_ADC_Init) for HAL_ADC_Init
    mlm32l0xx_hw.o(i.HW_AdcInit) refers to hw_gpio.o(i.HW_GPIO_Init) for HW_GPIO_Init
    mlm32l0xx_hw.o(i.HW_AdcInit) refers to mlm32l0xx_hw.o(.data) for AdcInitialized
    mlm32l0xx_hw.o(i.HW_AdcInit) refers to mlm32l0xx_hw.o(.bss) for hadc
    mlm32l0xx_hw.o(i.HW_AdcReadChannel) refers to stm32l0xx_hal_adc_ex.o(i.HAL_ADCEx_Calibration_Start) for HAL_ADCEx_Calibration_Start
    mlm32l0xx_hw.o(i.HW_AdcReadChannel) refers to stm32l0xx_hal_adc.o(i.HAL_ADC_ConfigChannel) for HAL_ADC_ConfigChannel
    mlm32l0xx_hw.o(i.HW_AdcReadChannel) refers to stm32l0xx_hal_adc.o(i.HAL_ADC_Start) for HAL_ADC_Start
    mlm32l0xx_hw.o(i.HW_AdcReadChannel) refers to stm32l0xx_hal_adc.o(i.HAL_ADC_PollForConversion) for HAL_ADC_PollForConversion
    mlm32l0xx_hw.o(i.HW_AdcReadChannel) refers to stm32l0xx_hal_adc.o(i.HAL_ADC_GetValue) for HAL_ADC_GetValue
    mlm32l0xx_hw.o(i.HW_AdcReadChannel) refers to mlm32l0xx_hw.o(.data) for AdcInitialized
    mlm32l0xx_hw.o(i.HW_AdcReadChannel) refers to mlm32l0xx_hw.o(.bss) for hadc
    mlm32l0xx_hw.o(i.HW_DeInit) refers to hw_spi.o(i.HW_SPI_DeInit) for HW_SPI_DeInit
    mlm32l0xx_hw.o(i.HW_DeInit) refers to vcom.o(i.vcom_DeInit) for vcom_DeInit
    mlm32l0xx_hw.o(i.HW_DeInit) refers to mlm32l07x01.o(.constdata) for Radio
    mlm32l0xx_hw.o(i.HW_DeInit) refers to mlm32l0xx_hw.o(.data) for McuInitialized
    mlm32l0xx_hw.o(i.HW_GetBatteryLevel) refers to mlm32l0xx_hw.o(i.HW_AdcReadChannel) for HW_AdcReadChannel
    mlm32l0xx_hw.o(i.HW_GetBatteryLevel) refers to uidiv.o(.text) for __aeabi_uidivmod
    mlm32l0xx_hw.o(i.HW_Init) refers to mlm32l0xx_hw.o(i.HW_AdcInit) for HW_AdcInit
    mlm32l0xx_hw.o(i.HW_Init) refers to hw_spi.o(i.HW_SPI_Init) for HW_SPI_Init
    mlm32l0xx_hw.o(i.HW_Init) refers to hw_rtc.o(i.HW_RTC_Init) for HW_RTC_Init
    mlm32l0xx_hw.o(i.HW_Init) refers to vcom.o(i.vcom_Init) for vcom_Init
    mlm32l0xx_hw.o(i.HW_Init) refers to b-l072z-lrwan1.o(i.BSP_LED_Init) for BSP_LED_Init
    mlm32l0xx_hw.o(i.HW_Init) refers to mlm32l0xx_hw.o(.data) for McuInitialized
    mlm32l0xx_hw.o(i.HW_Init) refers to mlm32l07x01.o(.constdata) for Radio
    mlm32l0xx_hw.o(i.LPM_EnterSleepMode) refers to stm32l0xx_hal_pwr.o(i.HAL_PWR_EnterSLEEPMode) for HAL_PWR_EnterSLEEPMode
    mlm32l0xx_hw.o(i.LPM_EnterStopMode) refers to mlm32l0xx_hw.o(i.HW_DeInit) for HW_DeInit
    mlm32l0xx_hw.o(i.LPM_EnterStopMode) refers to stm32l0xx_hal_pwr.o(i.HAL_PWR_EnterSTOPMode) for HAL_PWR_EnterSTOPMode
    mlm32l0xx_hw.o(i.LPM_ExitStopMode) refers to mlm32l0xx_hw.o(i.HW_Init) for HW_Init
    mlm32l0xx_hw.o(i.SystemClock_Config) refers to memseta.o(.text) for __aeabi_memclr4
    mlm32l0xx_hw.o(i.SystemClock_Config) refers to stm32l0xx_hal_rcc.o(i.HAL_RCC_OscConfig) for HAL_RCC_OscConfig
    mlm32l0xx_hw.o(i.SystemClock_Config) refers to debug.o(i.Error_Handler) for Error_Handler
    mlm32l0xx_hw.o(i.SystemClock_Config) refers to stm32l0xx_hal_rcc.o(i.HAL_RCC_ClockConfig) for HAL_RCC_ClockConfig
    mlm32l0xx_hw.o(i.SystemClock_STANDBYMode_Config) refers to memseta.o(.text) for __aeabi_memclr4
    mlm32l0xx_hw.o(i.SystemClock_STANDBYMode_Config) refers to stm32l0xx_hal_rcc.o(i.HAL_RCC_OscConfig) for HAL_RCC_OscConfig
    mlm32l0xx_hw.o(i.SystemClock_STANDBYMode_Config) refers to b-l072z-lrwan1.o(i.BSP_LED_On) for BSP_LED_On
    mlm32l0xx_hw.o(i.SystemClock_STANDBYMode_Config) refers to stm32l0xx_hal_rcc.o(i.HAL_RCC_ClockConfig) for HAL_RCC_ClockConfig
    delay.o(i.Delay) refers to fmul.o(.text) for __aeabi_fmul
    delay.o(i.Delay) refers to ffixui.o(.text) for __aeabi_f2uiz
    delay.o(i.Delay) refers to delay.o(i.DelayMs) for DelayMs
    delay.o(i.DelayMs) refers to hw_rtc.o(i.HW_RTC_DelayMs) for HW_RTC_DelayMs
    low_power_manager.o(i.LPM_EnterLowPower) refers to mlm32l0xx_hw.o(i.LPM_EnterSleepMode) for LPM_EnterSleepMode
    low_power_manager.o(i.LPM_EnterLowPower) refers to low_power_manager.o(i.LPM_ExitSleepMode) for LPM_ExitSleepMode
    low_power_manager.o(i.LPM_EnterLowPower) refers to mlm32l0xx_hw.o(i.LPM_EnterStopMode) for LPM_EnterStopMode
    low_power_manager.o(i.LPM_EnterLowPower) refers to mlm32l0xx_hw.o(i.LPM_ExitStopMode) for LPM_ExitStopMode
    low_power_manager.o(i.LPM_EnterLowPower) refers to low_power_manager.o(i.LPM_EnterOffMode) for LPM_EnterOffMode
    low_power_manager.o(i.LPM_EnterLowPower) refers to low_power_manager.o(i.LPM_ExitOffMode) for LPM_ExitOffMode
    low_power_manager.o(i.LPM_EnterLowPower) refers to low_power_manager.o(.data) for StopModeDisable
    low_power_manager.o(i.LPM_EnterOffMode) refers to vcom.o(i.vcom_Send) for vcom_Send
    low_power_manager.o(i.LPM_EnterOffMode) refers to stm32l0xx_hal_pwr.o(i.HAL_PWR_EnterSTANDBYMode) for HAL_PWR_EnterSTANDBYMode
    low_power_manager.o(i.LPM_GetMode) refers to low_power_manager.o(.data) for StopModeDisable
    low_power_manager.o(i.LPM_SetOffMode) refers to low_power_manager.o(.data) for OffModeDisable
    low_power_manager.o(i.LPM_SetStopMode) refers to low_power_manager.o(.data) for StopModeDisable
    timeserver.o(i.TimerExists) refers to timeserver.o(.data) for TimerListHead
    timeserver.o(i.TimerGetCurrentTime) refers to hw_rtc.o(i.HW_RTC_GetTimerValue) for HW_RTC_GetTimerValue
    timeserver.o(i.TimerGetCurrentTime) refers to hw_rtc.o(i.HW_RTC_Tick2ms) for HW_RTC_Tick2ms
    timeserver.o(i.TimerGetElapsedTime) refers to hw_rtc.o(i.HW_RTC_GetTimerValue) for HW_RTC_GetTimerValue
    timeserver.o(i.TimerGetElapsedTime) refers to hw_rtc.o(i.HW_RTC_ms2Tick) for HW_RTC_ms2Tick
    timeserver.o(i.TimerGetElapsedTime) refers to hw_rtc.o(i.HW_RTC_Tick2ms) for HW_RTC_Tick2ms
    timeserver.o(i.TimerInsertNewHeadTimer) refers to timeserver.o(i.TimerSetTimeout) for TimerSetTimeout
    timeserver.o(i.TimerInsertNewHeadTimer) refers to timeserver.o(.data) for TimerListHead
    timeserver.o(i.TimerInsertTimer) refers to timeserver.o(.data) for TimerListHead
    timeserver.o(i.TimerIrqHandler) refers to hw_rtc.o(i.HW_RTC_GetTimerContext) for HW_RTC_GetTimerContext
    timeserver.o(i.TimerIrqHandler) refers to hw_rtc.o(i.HW_RTC_SetTimerContext) for HW_RTC_SetTimerContext
    timeserver.o(i.TimerIrqHandler) refers to hw_rtc.o(i.HW_RTC_GetTimerElapsedTime) for HW_RTC_GetTimerElapsedTime
    timeserver.o(i.TimerIrqHandler) refers to timeserver.o(i.TimerSetTimeout) for TimerSetTimeout
    timeserver.o(i.TimerIrqHandler) refers to timeserver.o(.data) for TimerListHead
    timeserver.o(i.TimerReset) refers to timeserver.o(i.TimerStop) for TimerStop
    timeserver.o(i.TimerReset) refers to timeserver.o(i.TimerStart) for TimerStart
    timeserver.o(i.TimerSetTimeout) refers to hw_rtc.o(i.HW_RTC_GetMinimumTimeout) for HW_RTC_GetMinimumTimeout
    timeserver.o(i.TimerSetTimeout) refers to hw_rtc.o(i.HW_RTC_GetTimerElapsedTime) for HW_RTC_GetTimerElapsedTime
    timeserver.o(i.TimerSetTimeout) refers to hw_rtc.o(i.HW_RTC_SetAlarm) for HW_RTC_SetAlarm
    timeserver.o(i.TimerSetValue) refers to hw_rtc.o(i.HW_RTC_ms2Tick) for HW_RTC_ms2Tick
    timeserver.o(i.TimerSetValue) refers to timeserver.o(i.TimerStop) for TimerStop
    timeserver.o(i.TimerSetValue) refers to hw_rtc.o(i.HW_RTC_GetMinimumTimeout) for HW_RTC_GetMinimumTimeout
    timeserver.o(i.TimerStart) refers to timeserver.o(i.TimerExists) for TimerExists
    timeserver.o(i.TimerStart) refers to timeserver.o(i.__set_PRIMASK) for __set_PRIMASK
    timeserver.o(i.TimerStart) refers to hw_rtc.o(i.HW_RTC_SetTimerContext) for HW_RTC_SetTimerContext
    timeserver.o(i.TimerStart) refers to timeserver.o(i.TimerInsertNewHeadTimer) for TimerInsertNewHeadTimer
    timeserver.o(i.TimerStart) refers to hw_rtc.o(i.HW_RTC_GetTimerElapsedTime) for HW_RTC_GetTimerElapsedTime
    timeserver.o(i.TimerStart) refers to timeserver.o(i.TimerInsertTimer) for TimerInsertTimer
    timeserver.o(i.TimerStart) refers to timeserver.o(.data) for TimerListHead
    timeserver.o(i.TimerStop) refers to timeserver.o(i.__set_PRIMASK) for __set_PRIMASK
    timeserver.o(i.TimerStop) refers to timeserver.o(i.TimerSetTimeout) for TimerSetTimeout
    timeserver.o(i.TimerStop) refers to hw_rtc.o(i.HW_RTC_StopAlarm) for HW_RTC_StopAlarm
    timeserver.o(i.TimerStop) refers to timeserver.o(.data) for TimerListHead
    utilities.o(i.rand1) refers to uidiv.o(.text) for __aeabi_uidivmod
    utilities.o(i.rand1) refers to utilities.o(.data) for next
    utilities.o(i.randr) refers to utilities.o(i.rand1) for rand1
    utilities.o(i.randr) refers to idiv.o(.text) for __aeabi_idivmod
    utilities.o(i.srand1) refers to utilities.o(.data) for next
    ceil.o(i.__softfp_ceil) refers (Special) to iusefp.o(.text) for __I$use$fp
    ceil.o(i.__softfp_ceil) refers to ceil.o(i.ceil) for ceil
    ceil.o(i.ceil) refers (Special) to iusefp.o(.text) for __I$use$fp
    ceil.o(i.ceil) refers to dadd.o(.text) for __aeabi_dadd
    ceil.o(i.ceil) refers to cdrcmple.o(.text) for __aeabi_cdrcmple
    floor.o(i.__softfp_floor) refers (Special) to iusefp.o(.text) for __I$use$fp
    floor.o(i.__softfp_floor) refers to floor.o(i.floor) for floor
    floor.o(i.floor) refers (Special) to iusefp.o(.text) for __I$use$fp
    floor.o(i.floor) refers to dadd.o(.text) for __aeabi_dadd
    floor.o(i.floor) refers to cdrcmple.o(.text) for __aeabi_cdrcmple
    round.o(i.round) refers (Special) to iusefp.o(.text) for __I$use$fp
    round.o(i.round) refers to drnd.o(.text) for _drnd
    round.o(i.round) refers to dadd.o(.text) for __aeabi_dsub
    round.o(i.round) refers to cdcmple.o(.text) for __aeabi_cdcmple
    round.o(i.round) refers to cdrcmple.o(.text) for __aeabi_cdrcmple
    entry.o(.ARM.Collect$$$$00000000) refers (Special) to entry10a.o(.ARM.Collect$$$$0000000D) for __rt_final_cpp
    entry.o(.ARM.Collect$$$$00000000) refers (Special) to entry11a.o(.ARM.Collect$$$$0000000F) for __rt_final_exit
    entry.o(.ARM.Collect$$$$00000000) refers (Special) to entry7b.o(.ARM.Collect$$$$00000008) for _main_clock
    entry.o(.ARM.Collect$$$$00000000) refers (Special) to entry8b.o(.ARM.Collect$$$$0000000A) for _main_cpp_init
    entry.o(.ARM.Collect$$$$00000000) refers (Special) to entry9a.o(.ARM.Collect$$$$0000000B) for _main_init
    entry.o(.ARM.Collect$$$$00000000) refers (Special) to entry5.o(.ARM.Collect$$$$00000004) for _main_scatterload
    entry.o(.ARM.Collect$$$$00000000) refers (Special) to entry2.o(.ARM.Collect$$$$00000001) for _main_stk
    idiv.o(.text) refers to uidiv.o(.text) for __aeabi_uidivmod
    uldiv.o(.text) refers to llushr.o(.text) for __aeabi_llsr
    uldiv.o(.text) refers to llshl.o(.text) for __aeabi_llsl
    printfa.o(i.__0fprintf) refers (Special) to iusefp.o(.text) for __I$use$fp
    printfa.o(i.__0fprintf) refers to printfa.o(i._printf_core) for _printf_core
    printfa.o(i.__0fprintf) refers to fputc.o(i.fputc) for fputc
    printfa.o(i.__0printf) refers (Special) to iusefp.o(.text) for __I$use$fp
    printfa.o(i.__0printf) refers to printfa.o(i._printf_core) for _printf_core
    printfa.o(i.__0printf) refers to fputc.o(i.fputc) for fputc
    printfa.o(i.__0printf) refers to stdout.o(.data) for __stdout
    printfa.o(i.__0snprintf) refers (Special) to iusefp.o(.text) for __I$use$fp
    printfa.o(i.__0snprintf) refers to printfa.o(i._printf_core) for _printf_core
    printfa.o(i.__0snprintf) refers to printfa.o(i._snputc) for _snputc
    printfa.o(i.__0sprintf) refers (Special) to iusefp.o(.text) for __I$use$fp
    printfa.o(i.__0sprintf) refers to printfa.o(i._printf_core) for _printf_core
    printfa.o(i.__0sprintf) refers to printfa.o(i._sputc) for _sputc
    printfa.o(i.__0vfprintf) refers (Special) to iusefp.o(.text) for __I$use$fp
    printfa.o(i.__0vfprintf) refers to printfa.o(i._printf_core) for _printf_core
    printfa.o(i.__0vfprintf) refers to fputc.o(i.fputc) for fputc
    printfa.o(i.__0vprintf) refers (Special) to iusefp.o(.text) for __I$use$fp
    printfa.o(i.__0vprintf) refers to printfa.o(i._printf_core) for _printf_core
    printfa.o(i.__0vprintf) refers to fputc.o(i.fputc) for fputc
    printfa.o(i.__0vprintf) refers to stdout.o(.data) for __stdout
    printfa.o(i.__0vsnprintf) refers (Special) to iusefp.o(.text) for __I$use$fp
    printfa.o(i.__0vsnprintf) refers to printfa.o(i._printf_core) for _printf_core
    printfa.o(i.__0vsnprintf) refers to printfa.o(i._snputc) for _snputc
    printfa.o(i.__0vsprintf) refers (Special) to iusefp.o(.text) for __I$use$fp
    printfa.o(i.__0vsprintf) refers to printfa.o(i._printf_core) for _printf_core
    printfa.o(i.__0vsprintf) refers to printfa.o(i._sputc) for _sputc
    printfa.o(i._fp_digits) refers (Special) to iusefp.o(.text) for __I$use$fp
    printfa.o(i._fp_digits) refers to dmul.o(.text) for __aeabi_dmul
    printfa.o(i._fp_digits) refers to ddiv.o(.text) for __aeabi_ddiv
    printfa.o(i._fp_digits) refers to cdrcmple.o(.text) for __aeabi_cdrcmple
    printfa.o(i._fp_digits) refers to dadd.o(.text) for __aeabi_dadd
    printfa.o(i._fp_digits) refers to dfixul.o(.text) for __aeabi_d2ulz
    printfa.o(i._fp_digits) refers to uldiv.o(.text) for __aeabi_uldivmod
    printfa.o(i._printf_core) refers (Special) to iusefp.o(.text) for __I$use$fp
    printfa.o(i._printf_core) refers to printfa.o(i._printf_pre_padding) for _printf_pre_padding
    printfa.o(i._printf_core) refers to uldiv.o(.text) for __aeabi_uldivmod
    printfa.o(i._printf_core) refers to printfa.o(i._printf_post_padding) for _printf_post_padding
    printfa.o(i._printf_core) refers to printfa.o(i._fp_digits) for _fp_digits
    printfa.o(i._printf_core) refers to uidiv.o(.text) for __aeabi_uidivmod
    printfa.o(i._printf_post_padding) refers (Special) to iusefp.o(.text) for __I$use$fp
    printfa.o(i._printf_pre_padding) refers (Special) to iusefp.o(.text) for __I$use$fp
    printfa.o(i._snputc) refers (Special) to iusefp.o(.text) for __I$use$fp
    printfa.o(i._sputc) refers (Special) to iusefp.o(.text) for __I$use$fp
    fmul.o(.text) refers (Special) to iusefp.o(.text) for __I$use$fp
    dadd.o(.text) refers (Special) to iusefp.o(.text) for __I$use$fp
    dadd.o(.text) refers to llshl.o(.text) for __aeabi_llsl
    dadd.o(.text) refers to llsshr.o(.text) for __aeabi_lasr
    dadd.o(.text) refers to depilogue.o(.text) for _double_epilogue
    dmul.o(.text) refers (Special) to iusefp.o(.text) for __I$use$fp
    dmul.o(.text) refers to depilogue.o(.text) for _double_epilogue
    ddiv.o(.text) refers (Special) to iusefp.o(.text) for __I$use$fp
    ddiv.o(.text) refers to depilogue.o(.text) for _double_round
    dflti.o(.text) refers (Special) to iusefp.o(.text) for __I$use$fp
    dflti.o(.text) refers to depilogue.o(.text) for _double_epilogue
    dfltui.o(.text) refers (Special) to iusefp.o(.text) for __I$use$fp
    dfltui.o(.text) refers to depilogue.o(.text) for _double_epilogue
    ffixui.o(.text) refers (Special) to iusefp.o(.text) for __I$use$fp
    dfixui.o(.text) refers (Special) to iusefp.o(.text) for __I$use$fp
    dfixui.o(.text) refers to llushr.o(.text) for __aeabi_llsr
    cdrcmple.o(.text) refers (Special) to iusefp.o(.text) for __I$use$fp
    entry2.o(.ARM.Collect$$$$00000001) refers to entry2.o(.ARM.Collect$$$$00002712) for __lit__00000000
    entry2.o(.ARM.Collect$$$$00002712) refers to startup_stm32l072xx.o(STACK) for __initial_sp
    entry2.o(__vectab_stack_and_reset_area) refers to startup_stm32l072xx.o(STACK) for __initial_sp
    entry2.o(__vectab_stack_and_reset_area) refers to entry.o(.ARM.Collect$$$$00000000) for __main
    entry5.o(.ARM.Collect$$$$00000004) refers to init.o(.text) for __scatterload
    entry9a.o(.ARM.Collect$$$$0000000B) refers to main.o(i.main) for main
    entry9b.o(.ARM.Collect$$$$0000000C) refers to main.o(i.main) for main
    fputc.o(i.fputc) refers (Special) to iusesemip.o(.text) for __I$use$semihosting$fputc
    fputc.o(i.fputc) refers (Special) to semi.o(.text) for __semihosting_library_function
    depilogue.o(.text) refers to depilogue.o(i.__ARM_clz) for __ARM_clz
    depilogue.o(.text) refers to llshl.o(.text) for __aeabi_llsl
    depilogue.o(.text) refers to llushr.o(.text) for __aeabi_llsr
    drnd.o(.text) refers to llshl.o(.text) for __aeabi_llsl
    drnd.o(.text) refers to llushr.o(.text) for __aeabi_llsr
    drnd.o(.text) refers to depilogue.o(.text) for _double_round
    dfixul.o(.text) refers to llushr.o(.text) for __aeabi_llsr
    dfixul.o(.text) refers to llshl.o(.text) for __aeabi_llsl
    init.o(.text) refers to entry5.o(.ARM.Collect$$$$00000004) for __main_after_scatterload


==============================================================================

Removing Unused input sections from the image.

    Removing sx1276.o(.rev16_text), (4 bytes).
    Removing sx1276.o(.revsh_text), (4 bytes).
    Removing sx1276.o(i.SX1276OnDio5Irq), (28 bytes).
    Removing mlm32l07x01.o(.rev16_text), (4 bytes).
    Removing mlm32l07x01.o(.revsh_text), (4 bytes).
    Removing b-l072z-lrwan1.o(.rev16_text), (4 bytes).
    Removing b-l072z-lrwan1.o(.revsh_text), (4 bytes).
    Removing b-l072z-lrwan1.o(i.BSP_GetVersion), (6 bytes).
    Removing b-l072z-lrwan1.o(i.BSP_LED_Off), (32 bytes).
    Removing b-l072z-lrwan1.o(i.BSP_PB_GetState), (32 bytes).
    Removing b-l072z-lrwan1.o(i.BSP_PB_Init), (168 bytes).
    Removing b-l072z-lrwan1.o(i.NVIC_SetPriority), (120 bytes).
    Removing system_stm32l0xx.o(.rev16_text), (4 bytes).
    Removing system_stm32l0xx.o(.revsh_text), (4 bytes).
    Removing system_stm32l0xx.o(i.SystemCoreClockUpdate), (252 bytes).
    Removing stm32l0xx_hal_spi.o(.rev16_text), (4 bytes).
    Removing stm32l0xx_hal_spi.o(.revsh_text), (4 bytes).
    Removing stm32l0xx_hal_spi.o(i.HAL_SPI_DMAPause), (62 bytes).
    Removing stm32l0xx_hal_spi.o(i.HAL_SPI_DMAResume), (62 bytes).
    Removing stm32l0xx_hal_spi.o(i.HAL_SPI_DMAStop), (62 bytes).
    Removing stm32l0xx_hal_spi.o(i.HAL_SPI_DeInit), (58 bytes).
    Removing stm32l0xx_hal_spi.o(i.HAL_SPI_ErrorCallback), (2 bytes).
    Removing stm32l0xx_hal_spi.o(i.HAL_SPI_GetError), (6 bytes).
    Removing stm32l0xx_hal_spi.o(i.HAL_SPI_GetState), (8 bytes).
    Removing stm32l0xx_hal_spi.o(i.HAL_SPI_IRQHandler), (302 bytes).
    Removing stm32l0xx_hal_spi.o(i.HAL_SPI_MspDeInit), (2 bytes).
    Removing stm32l0xx_hal_spi.o(i.HAL_SPI_Receive), (608 bytes).
    Removing stm32l0xx_hal_spi.o(i.HAL_SPI_Receive_DMA), (316 bytes).
    Removing stm32l0xx_hal_spi.o(i.HAL_SPI_Receive_IT), (240 bytes).
    Removing stm32l0xx_hal_spi.o(i.HAL_SPI_RxCpltCallback), (2 bytes).
    Removing stm32l0xx_hal_spi.o(i.HAL_SPI_RxHalfCpltCallback), (2 bytes).
    Removing stm32l0xx_hal_spi.o(i.HAL_SPI_Transmit), (474 bytes).
    Removing stm32l0xx_hal_spi.o(i.HAL_SPI_TransmitReceive_DMA), (332 bytes).
    Removing stm32l0xx_hal_spi.o(i.HAL_SPI_TransmitReceive_IT), (212 bytes).
    Removing stm32l0xx_hal_spi.o(i.HAL_SPI_Transmit_DMA), (272 bytes).
    Removing stm32l0xx_hal_spi.o(i.HAL_SPI_Transmit_IT), (212 bytes).
    Removing stm32l0xx_hal_spi.o(i.HAL_SPI_TxCpltCallback), (2 bytes).
    Removing stm32l0xx_hal_spi.o(i.HAL_SPI_TxHalfCpltCallback), (2 bytes).
    Removing stm32l0xx_hal_spi.o(i.HAL_SPI_TxRxCpltCallback), (2 bytes).
    Removing stm32l0xx_hal_spi.o(i.HAL_SPI_TxRxHalfCpltCallback), (2 bytes).
    Removing stm32l0xx_hal_spi.o(i.SPI_2LinesRxISR), (60 bytes).
    Removing stm32l0xx_hal_spi.o(i.SPI_DMAError), (34 bytes).
    Removing stm32l0xx_hal_spi.o(i.SPI_DMAHalfReceiveCplt), (14 bytes).
    Removing stm32l0xx_hal_spi.o(i.SPI_DMAHalfTransmitCplt), (14 bytes).
    Removing stm32l0xx_hal_spi.o(i.SPI_DMAHalfTransmitReceiveCplt), (14 bytes).
    Removing stm32l0xx_hal_spi.o(i.SPI_DMAReceiveCplt), (226 bytes).
    Removing stm32l0xx_hal_spi.o(i.SPI_DMATransmitCplt), (134 bytes).
    Removing stm32l0xx_hal_spi.o(i.SPI_DMATransmitReceiveCplt), (226 bytes).
    Removing stm32l0xx_hal_spi.o(i.SPI_RxCloseIRQHandler), (264 bytes).
    Removing stm32l0xx_hal_spi.o(i.SPI_RxISR), (88 bytes).
    Removing stm32l0xx_hal_spi.o(i.SPI_TxCloseIRQHandler), (170 bytes).
    Removing stm32l0xx_hal_spi.o(i.SPI_TxISR), (80 bytes).
    Removing stm32l0xx_hal_uart.o(.rev16_text), (4 bytes).
    Removing stm32l0xx_hal_uart.o(.revsh_text), (4 bytes).
    Removing stm32l0xx_hal_uart.o(i.HAL_HalfDuplex_EnableReceiver), (74 bytes).
    Removing stm32l0xx_hal_uart.o(i.HAL_HalfDuplex_EnableTransmitter), (74 bytes).
    Removing stm32l0xx_hal_uart.o(i.HAL_HalfDuplex_Init), (132 bytes).
    Removing stm32l0xx_hal_uart.o(i.HAL_LIN_Init), (174 bytes).
    Removing stm32l0xx_hal_uart.o(i.HAL_LIN_SendBreak), (62 bytes).
    Removing stm32l0xx_hal_uart.o(i.HAL_MultiProcessor_DisableMuteMode), (60 bytes).
    Removing stm32l0xx_hal_uart.o(i.HAL_MultiProcessor_EnableMuteMode), (60 bytes).
    Removing stm32l0xx_hal_uart.o(i.HAL_MultiProcessor_EnterMuteMode), (14 bytes).
    Removing stm32l0xx_hal_uart.o(i.HAL_MultiProcessor_Init), (164 bytes).
    Removing stm32l0xx_hal_uart.o(i.HAL_UART_Abort), (142 bytes).
    Removing stm32l0xx_hal_uart.o(i.HAL_UART_AbortCpltCallback), (2 bytes).
    Removing stm32l0xx_hal_uart.o(i.HAL_UART_AbortReceive), (92 bytes).
    Removing stm32l0xx_hal_uart.o(i.HAL_UART_AbortReceiveCpltCallback), (2 bytes).
    Removing stm32l0xx_hal_uart.o(i.HAL_UART_AbortReceive_IT), (140 bytes).
    Removing stm32l0xx_hal_uart.o(i.HAL_UART_AbortTransmit), (72 bytes).
    Removing stm32l0xx_hal_uart.o(i.HAL_UART_AbortTransmitCpltCallback), (2 bytes).
    Removing stm32l0xx_hal_uart.o(i.HAL_UART_AbortTransmit_IT), (116 bytes).
    Removing stm32l0xx_hal_uart.o(i.HAL_UART_Abort_IT), (244 bytes).
    Removing stm32l0xx_hal_uart.o(i.HAL_UART_DMAPause), (124 bytes).
    Removing stm32l0xx_hal_uart.o(i.HAL_UART_DMAResume), (110 bytes).
    Removing stm32l0xx_hal_uart.o(i.HAL_UART_DMAStop), (104 bytes).
    Removing stm32l0xx_hal_uart.o(i.HAL_UART_DeInit), (76 bytes).
    Removing stm32l0xx_hal_uart.o(i.HAL_UART_ErrorCallback), (2 bytes).
    Removing stm32l0xx_hal_uart.o(i.HAL_UART_GetError), (6 bytes).
    Removing stm32l0xx_hal_uart.o(i.HAL_UART_GetState), (20 bytes).
    Removing stm32l0xx_hal_uart.o(i.HAL_UART_IRQHandler), (448 bytes).
    Removing stm32l0xx_hal_uart.o(i.HAL_UART_MspDeInit), (2 bytes).
    Removing stm32l0xx_hal_uart.o(i.HAL_UART_MspInit), (2 bytes).
    Removing stm32l0xx_hal_uart.o(i.HAL_UART_Receive), (332 bytes).
    Removing stm32l0xx_hal_uart.o(i.HAL_UART_Receive_DMA), (204 bytes).
    Removing stm32l0xx_hal_uart.o(i.HAL_UART_Receive_IT), (236 bytes).
    Removing stm32l0xx_hal_uart.o(i.HAL_UART_RxCpltCallback), (2 bytes).
    Removing stm32l0xx_hal_uart.o(i.HAL_UART_RxHalfCpltCallback), (2 bytes).
    Removing stm32l0xx_hal_uart.o(i.HAL_UART_Transmit_DMA), (188 bytes).
    Removing stm32l0xx_hal_uart.o(i.HAL_UART_Transmit_IT), (124 bytes).
    Removing stm32l0xx_hal_uart.o(i.HAL_UART_TxCpltCallback), (2 bytes).
    Removing stm32l0xx_hal_uart.o(i.HAL_UART_TxHalfCpltCallback), (2 bytes).
    Removing stm32l0xx_hal_uart.o(i.UART_DMAAbortOnError), (24 bytes).
    Removing stm32l0xx_hal_uart.o(i.UART_DMAError), (86 bytes).
    Removing stm32l0xx_hal_uart.o(i.UART_DMAReceiveCplt), (76 bytes).
    Removing stm32l0xx_hal_uart.o(i.UART_DMARxAbortCallback), (68 bytes).
    Removing stm32l0xx_hal_uart.o(i.UART_DMARxHalfCplt), (14 bytes).
    Removing stm32l0xx_hal_uart.o(i.UART_DMARxOnlyAbortCallback), (32 bytes).
    Removing stm32l0xx_hal_uart.o(i.UART_DMATransmitCplt), (58 bytes).
    Removing stm32l0xx_hal_uart.o(i.UART_DMATxAbortCallback), (68 bytes).
    Removing stm32l0xx_hal_uart.o(i.UART_DMATxHalfCplt), (14 bytes).
    Removing stm32l0xx_hal_uart.o(i.UART_DMATxOnlyAbortCallback), (26 bytes).
    Removing stm32l0xx_hal_uart.o(i.UART_EndRxTransfer), (34 bytes).
    Removing stm32l0xx_hal_uart.o(i.UART_EndTransmit_IT), (32 bytes).
    Removing stm32l0xx_hal_uart.o(i.UART_EndTxTransfer), (20 bytes).
    Removing stm32l0xx_hal_uart.o(i.UART_Receive_IT), (144 bytes).
    Removing stm32l0xx_hal_uart.o(i.UART_Transmit_IT), (114 bytes).
    Removing stm32l0xx_hal_adc.o(.rev16_text), (4 bytes).
    Removing stm32l0xx_hal_adc.o(.revsh_text), (4 bytes).
    Removing stm32l0xx_hal_adc.o(i.ADC_ConversionStop), (108 bytes).
    Removing stm32l0xx_hal_adc.o(i.ADC_DMAConvCplt), (134 bytes).
    Removing stm32l0xx_hal_adc.o(i.ADC_DMAError), (30 bytes).
    Removing stm32l0xx_hal_adc.o(i.ADC_DMAHalfConvCplt), (14 bytes).
    Removing stm32l0xx_hal_adc.o(i.ADC_DelayMicroSecond), (44 bytes).
    Removing stm32l0xx_hal_adc.o(i.ADC_Disable), (156 bytes).
    Removing stm32l0xx_hal_adc.o(i.ADC_Enable), (164 bytes).
    Removing stm32l0xx_hal_adc.o(i.HAL_ADC_AnalogWDGConfig), (212 bytes).
    Removing stm32l0xx_hal_adc.o(i.HAL_ADC_ConfigChannel), (264 bytes).
    Removing stm32l0xx_hal_adc.o(i.HAL_ADC_ConvCpltCallback), (2 bytes).
    Removing stm32l0xx_hal_adc.o(i.HAL_ADC_ConvHalfCpltCallback), (2 bytes).
    Removing stm32l0xx_hal_adc.o(i.HAL_ADC_DeInit), (212 bytes).
    Removing stm32l0xx_hal_adc.o(i.HAL_ADC_ErrorCallback), (2 bytes).
    Removing stm32l0xx_hal_adc.o(i.HAL_ADC_GetError), (6 bytes).
    Removing stm32l0xx_hal_adc.o(i.HAL_ADC_GetState), (6 bytes).
    Removing stm32l0xx_hal_adc.o(i.HAL_ADC_GetValue), (8 bytes).
    Removing stm32l0xx_hal_adc.o(i.HAL_ADC_IRQHandler), (284 bytes).
    Removing stm32l0xx_hal_adc.o(i.HAL_ADC_LevelOutOfWindowCallback), (2 bytes).
    Removing stm32l0xx_hal_adc.o(i.HAL_ADC_MspDeInit), (2 bytes).
    Removing stm32l0xx_hal_adc.o(i.HAL_ADC_PollForConversion), (232 bytes).
    Removing stm32l0xx_hal_adc.o(i.HAL_ADC_PollForEvent), (138 bytes).
    Removing stm32l0xx_hal_adc.o(i.HAL_ADC_Start), (120 bytes).
    Removing stm32l0xx_hal_adc.o(i.HAL_ADC_Start_DMA), (192 bytes).
    Removing stm32l0xx_hal_adc.o(i.HAL_ADC_Start_IT), (168 bytes).
    Removing stm32l0xx_hal_adc.o(i.HAL_ADC_Stop), (80 bytes).
    Removing stm32l0xx_hal_adc.o(i.HAL_ADC_Stop_DMA), (136 bytes).
    Removing stm32l0xx_hal_adc.o(i.HAL_ADC_Stop_IT), (92 bytes).
    Removing stm32l0xx_hal_rcc.o(.rev16_text), (4 bytes).
    Removing stm32l0xx_hal_rcc.o(.revsh_text), (4 bytes).
    Removing stm32l0xx_hal_rcc.o(i.HAL_RCC_CSSCallback), (2 bytes).
    Removing stm32l0xx_hal_rcc.o(i.HAL_RCC_DeInit), (140 bytes).
    Removing stm32l0xx_hal_rcc.o(i.HAL_RCC_EnableCSS), (20 bytes).
    Removing stm32l0xx_hal_rcc.o(i.HAL_RCC_GetClockConfig), (68 bytes).
    Removing stm32l0xx_hal_rcc.o(i.HAL_RCC_GetOscConfig), (284 bytes).
    Removing stm32l0xx_hal_rcc.o(i.HAL_RCC_MCOConfig), (212 bytes).
    Removing stm32l0xx_hal_rcc.o(i.HAL_RCC_NMI_IRQHandler), (36 bytes).
    Removing stm32l0xx_hal_rcc_ex.o(.rev16_text), (4 bytes).
    Removing stm32l0xx_hal_rcc_ex.o(.revsh_text), (4 bytes).
    Removing stm32l0xx_hal_rcc_ex.o(i.HAL_RCCEx_CRSConfig), (96 bytes).
    Removing stm32l0xx_hal_rcc_ex.o(i.HAL_RCCEx_CRSGetSynchronizationInfo), (48 bytes).
    Removing stm32l0xx_hal_rcc_ex.o(i.HAL_RCCEx_CRSSoftwareSynchronizationGenerate), (20 bytes).
    Removing stm32l0xx_hal_rcc_ex.o(i.HAL_RCCEx_CRSWaitSynchronization), (208 bytes).
    Removing stm32l0xx_hal_rcc_ex.o(i.HAL_RCCEx_CRS_ErrorCallback), (2 bytes).
    Removing stm32l0xx_hal_rcc_ex.o(i.HAL_RCCEx_CRS_ExpectedSyncCallback), (2 bytes).
    Removing stm32l0xx_hal_rcc_ex.o(i.HAL_RCCEx_CRS_IRQHandler), (172 bytes).
    Removing stm32l0xx_hal_rcc_ex.o(i.HAL_RCCEx_CRS_SyncOkCallback), (2 bytes).
    Removing stm32l0xx_hal_rcc_ex.o(i.HAL_RCCEx_CRS_SyncWarnCallback), (2 bytes).
    Removing stm32l0xx_hal_rcc_ex.o(i.HAL_RCCEx_DisableHSI48_VREFINT), (20 bytes).
    Removing stm32l0xx_hal_rcc_ex.o(i.HAL_RCCEx_DisableLSECSS), (36 bytes).
    Removing stm32l0xx_hal_rcc_ex.o(i.HAL_RCCEx_EnableHSI48_VREFINT), (20 bytes).
    Removing stm32l0xx_hal_rcc_ex.o(i.HAL_RCCEx_EnableLSECSS), (20 bytes).
    Removing stm32l0xx_hal_rcc_ex.o(i.HAL_RCCEx_EnableLSECSS_IT), (68 bytes).
    Removing stm32l0xx_hal_rcc_ex.o(i.HAL_RCCEx_GetPeriphCLKConfig), (156 bytes).
    Removing stm32l0xx_hal_rcc_ex.o(i.HAL_RCCEx_LSECSS_Callback), (2 bytes).
    Removing stm32l0xx_hal_rcc_ex.o(i.HAL_RCCEx_LSECSS_IRQHandler), (32 bytes).
    Removing stm32l0xx_hal.o(.rev16_text), (4 bytes).
    Removing stm32l0xx_hal.o(.revsh_text), (4 bytes).
    Removing stm32l0xx_hal.o(i.HAL_DBGMCU_DBG_DisableLowPowerConfig), (16 bytes).
    Removing stm32l0xx_hal.o(i.HAL_DBGMCU_DBG_EnableLowPowerConfig), (16 bytes).
    Removing stm32l0xx_hal.o(i.HAL_DBGMCU_EnableDBGSleepMode), (20 bytes).
    Removing stm32l0xx_hal.o(i.HAL_DBGMCU_EnableDBGStandbyMode), (20 bytes).
    Removing stm32l0xx_hal.o(i.HAL_DBGMCU_EnableDBGStopMode), (20 bytes).
    Removing stm32l0xx_hal.o(i.HAL_DeInit), (52 bytes).
    Removing stm32l0xx_hal.o(i.HAL_Delay), (26 bytes).
    Removing stm32l0xx_hal.o(i.HAL_GetDEVID), (16 bytes).
    Removing stm32l0xx_hal.o(i.HAL_GetHalVersion), (8 bytes).
    Removing stm32l0xx_hal.o(i.HAL_GetREVID), (12 bytes).
    Removing stm32l0xx_hal.o(i.HAL_InitTick), (40 bytes).
    Removing stm32l0xx_hal.o(i.HAL_MspDeInit), (2 bytes).
    Removing stm32l0xx_hal.o(i.HAL_MspInit), (2 bytes).
    Removing stm32l0xx_hal.o(i.HAL_ResumeTick), (20 bytes).
    Removing stm32l0xx_hal.o(i.HAL_SYSCFG_Disable_Lock_VREFINT), (20 bytes).
    Removing stm32l0xx_hal.o(i.HAL_SYSCFG_Enable_Lock_VREFINT), (20 bytes).
    Removing stm32l0xx_hal.o(i.HAL_SYSCFG_GetBootMode), (16 bytes).
    Removing stm32l0xx_hal.o(i.HAL_SYSCFG_VREFINT_OutputSelect), (28 bytes).
    Removing stm32l0xx_hal.o(i.HAL_SuspendTick), (20 bytes).
    Removing stm32l0xx_hal_cortex.o(.rev16_text), (4 bytes).
    Removing stm32l0xx_hal_cortex.o(.revsh_text), (4 bytes).
    Removing stm32l0xx_hal_cortex.o(i.HAL_MPU_ConfigRegion), (84 bytes).
    Removing stm32l0xx_hal_cortex.o(i.HAL_NVIC_DisableIRQ), (24 bytes).
    Removing stm32l0xx_hal_cortex.o(i.HAL_NVIC_GetPendingIRQ), (40 bytes).
    Removing stm32l0xx_hal_cortex.o(i.HAL_NVIC_GetPriority), (72 bytes).
    Removing stm32l0xx_hal_cortex.o(i.HAL_NVIC_SystemReset), (56 bytes).
    Removing stm32l0xx_hal_cortex.o(i.HAL_SYSTICK_CLKSourceConfig), (36 bytes).
    Removing stm32l0xx_hal_cortex.o(i.HAL_SYSTICK_Callback), (2 bytes).
    Removing stm32l0xx_hal_cortex.o(i.HAL_SYSTICK_Config), (56 bytes).
    Removing stm32l0xx_hal_cortex.o(i.HAL_SYSTICK_IRQHandler), (8 bytes).
    Removing stm32l0xx_hal_gpio.o(.rev16_text), (4 bytes).
    Removing stm32l0xx_hal_gpio.o(.revsh_text), (4 bytes).
    Removing stm32l0xx_hal_gpio.o(i.HAL_GPIO_DeInit), (296 bytes).
    Removing stm32l0xx_hal_gpio.o(i.HAL_GPIO_EXTI_Callback), (2 bytes).
    Removing stm32l0xx_hal_gpio.o(i.HAL_GPIO_LockPin), (50 bytes).
    Removing stm32l0xx_hal_gpio.o(i.HAL_GPIO_ReadPin), (18 bytes).
    Removing stm32l0xx_hal_dma.o(.rev16_text), (4 bytes).
    Removing stm32l0xx_hal_dma.o(.revsh_text), (4 bytes).
    Removing stm32l0xx_hal_dma.o(i.DMA_SetConfig), (32 bytes).
    Removing stm32l0xx_hal_dma.o(i.HAL_DMA_Abort), (100 bytes).
    Removing stm32l0xx_hal_dma.o(i.HAL_DMA_Abort_IT), (180 bytes).
    Removing stm32l0xx_hal_dma.o(i.HAL_DMA_DeInit), (668 bytes).
    Removing stm32l0xx_hal_dma.o(i.HAL_DMA_GetError), (6 bytes).
    Removing stm32l0xx_hal_dma.o(i.HAL_DMA_GetState), (8 bytes).
    Removing stm32l0xx_hal_dma.o(i.HAL_DMA_IRQHandler), (796 bytes).
    Removing stm32l0xx_hal_dma.o(i.HAL_DMA_Init), (400 bytes).
    Removing stm32l0xx_hal_dma.o(i.HAL_DMA_PollForTransfer), (748 bytes).
    Removing stm32l0xx_hal_dma.o(i.HAL_DMA_Start), (78 bytes).
    Removing stm32l0xx_hal_dma.o(i.HAL_DMA_Start_IT), (114 bytes).
    Removing stm32l0xx_hal_pwr.o(.rev16_text), (4 bytes).
    Removing stm32l0xx_hal_pwr.o(.revsh_text), (4 bytes).
    Removing stm32l0xx_hal_pwr.o(i.HAL_PWR_ConfigPVD), (176 bytes).
    Removing stm32l0xx_hal_pwr.o(i.HAL_PWR_DeInit), (32 bytes).
    Removing stm32l0xx_hal_pwr.o(i.HAL_PWR_DisableBkUpAccess), (20 bytes).
    Removing stm32l0xx_hal_pwr.o(i.HAL_PWR_DisableSEVOnPend), (20 bytes).
    Removing stm32l0xx_hal_pwr.o(i.HAL_PWR_DisableSleepOnExit), (20 bytes).
    Removing stm32l0xx_hal_pwr.o(i.HAL_PWR_DisableWakeUpPin), (16 bytes).
    Removing stm32l0xx_hal_pwr.o(i.HAL_PWR_EnableBkUpAccess), (20 bytes).
    Removing stm32l0xx_hal_pwr.o(i.HAL_PWR_EnablePVD), (20 bytes).
    Removing stm32l0xx_hal_pwr.o(i.HAL_PWR_EnableSEVOnPend), (20 bytes).
    Removing stm32l0xx_hal_pwr.o(i.HAL_PWR_EnableSleepOnExit), (20 bytes).
    Removing stm32l0xx_hal_pwr.o(i.HAL_PWR_EnableWakeUpPin), (16 bytes).
    Removing stm32l0xx_hal_pwr.o(i.HAL_PWR_EnterSLEEPMode), (60 bytes).
    Removing stm32l0xx_hal_pwr.o(i.HAL_PWR_EnterSTOPMode), (72 bytes).
    Removing stm32l0xx_hal_pwr.o(i.HAL_PWR_PVDCallback), (2 bytes).
    Removing stm32l0xx_hal_pwr.o(i.HAL_PWR_PVD_IRQHandler), (36 bytes).
    Removing stm32l0xx_hal_pwr_ex.o(.rev16_text), (4 bytes).
    Removing stm32l0xx_hal_pwr_ex.o(.revsh_text), (4 bytes).
    Removing stm32l0xx_hal_pwr_ex.o(i.HAL_PWREx_DisableFastWakeUp), (20 bytes).
    Removing stm32l0xx_hal_pwr_ex.o(i.HAL_PWREx_DisableLowPowerRunMode), (96 bytes).
    Removing stm32l0xx_hal_pwr_ex.o(i.HAL_PWREx_DisableUltraLowPower), (20 bytes).
    Removing stm32l0xx_hal_pwr_ex.o(i.HAL_PWREx_EnableLowPowerRunMode), (32 bytes).
    Removing stm32l0xx_hal_pwr_ex.o(i.HAL_PWREx_GetVoltageRange), (16 bytes).
    Removing stm32l0xx_hal_rtc.o(.rev16_text), (4 bytes).
    Removing stm32l0xx_hal_rtc.o(.revsh_text), (4 bytes).
    Removing stm32l0xx_hal_rtc.o(i.HAL_RTC_AlarmAEventCallback), (2 bytes).
    Removing stm32l0xx_hal_rtc.o(i.HAL_RTC_AlarmIRQHandler), (136 bytes).
    Removing stm32l0xx_hal_rtc.o(i.HAL_RTC_DeInit), (284 bytes).
    Removing stm32l0xx_hal_rtc.o(i.HAL_RTC_GetAlarm), (240 bytes).
    Removing stm32l0xx_hal_rtc.o(i.HAL_RTC_GetState), (8 bytes).
    Removing stm32l0xx_hal_rtc.o(i.HAL_RTC_MspDeInit), (2 bytes).
    Removing stm32l0xx_hal_rtc.o(i.HAL_RTC_MspInit), (2 bytes).
    Removing stm32l0xx_hal_rtc.o(i.HAL_RTC_PollForAlarmAEvent), (92 bytes).
    Removing stm32l0xx_hal_rtc.o(i.HAL_RTC_SetAlarm), (530 bytes).
    Removing stm32l0xx_hal_rtc_ex.o(.rev16_text), (4 bytes).
    Removing stm32l0xx_hal_rtc_ex.o(.revsh_text), (4 bytes).
    Removing stm32l0xx_hal_rtc_ex.o(i.HAL_RTCEx_AlarmBEventCallback), (2 bytes).
    Removing stm32l0xx_hal_rtc_ex.o(i.HAL_RTCEx_BKUPRead), (18 bytes).
    Removing stm32l0xx_hal_rtc_ex.o(i.HAL_RTCEx_BKUPWrite), (18 bytes).
    Removing stm32l0xx_hal_rtc_ex.o(i.HAL_RTCEx_DeactivateCalibrationOutPut), (90 bytes).
    Removing stm32l0xx_hal_rtc_ex.o(i.HAL_RTCEx_DeactivateRefClock), (142 bytes).
    Removing stm32l0xx_hal_rtc_ex.o(i.HAL_RTCEx_DeactivateTamper), (132 bytes).
    Removing stm32l0xx_hal_rtc_ex.o(i.HAL_RTCEx_DeactivateTimeStamp), (112 bytes).
    Removing stm32l0xx_hal_rtc_ex.o(i.HAL_RTCEx_DeactivateWakeUpTimer), (174 bytes).
    Removing stm32l0xx_hal_rtc_ex.o(i.HAL_RTCEx_DisableBypassShadow), (88 bytes).
    Removing stm32l0xx_hal_rtc_ex.o(i.HAL_RTCEx_GetTimeStamp), (204 bytes).
    Removing stm32l0xx_hal_rtc_ex.o(i.HAL_RTCEx_GetWakeUpTimer), (10 bytes).
    Removing stm32l0xx_hal_rtc_ex.o(i.HAL_RTCEx_PollForAlarmBEvent), (92 bytes).
    Removing stm32l0xx_hal_rtc_ex.o(i.HAL_RTCEx_PollForTamper1Event), (92 bytes).
    Removing stm32l0xx_hal_rtc_ex.o(i.HAL_RTCEx_PollForTamper2Event), (92 bytes).
    Removing stm32l0xx_hal_rtc_ex.o(i.HAL_RTCEx_PollForTamper3Event), (92 bytes).
    Removing stm32l0xx_hal_rtc_ex.o(i.HAL_RTCEx_PollForTimeStampEvent), (116 bytes).
    Removing stm32l0xx_hal_rtc_ex.o(i.HAL_RTCEx_PollForWakeUpTimerEvent), (92 bytes).
    Removing stm32l0xx_hal_rtc_ex.o(i.HAL_RTCEx_SetCalibrationOutPut), (114 bytes).
    Removing stm32l0xx_hal_rtc_ex.o(i.HAL_RTCEx_SetRefClock), (142 bytes).
    Removing stm32l0xx_hal_rtc_ex.o(i.HAL_RTCEx_SetSmoothCalib), (180 bytes).
    Removing stm32l0xx_hal_rtc_ex.o(i.HAL_RTCEx_SetSynchroShift), (250 bytes).
    Removing stm32l0xx_hal_rtc_ex.o(i.HAL_RTCEx_SetTamper), (268 bytes).
    Removing stm32l0xx_hal_rtc_ex.o(i.HAL_RTCEx_SetTamper_IT), (304 bytes).
    Removing stm32l0xx_hal_rtc_ex.o(i.HAL_RTCEx_SetTimeStamp), (120 bytes).
    Removing stm32l0xx_hal_rtc_ex.o(i.HAL_RTCEx_SetTimeStamp_IT), (168 bytes).
    Removing stm32l0xx_hal_rtc_ex.o(i.HAL_RTCEx_SetWakeUpTimer), (284 bytes).
    Removing stm32l0xx_hal_rtc_ex.o(i.HAL_RTCEx_SetWakeUpTimer_IT), (352 bytes).
    Removing stm32l0xx_hal_rtc_ex.o(i.HAL_RTCEx_Tamper1EventCallback), (2 bytes).
    Removing stm32l0xx_hal_rtc_ex.o(i.HAL_RTCEx_Tamper2EventCallback), (2 bytes).
    Removing stm32l0xx_hal_rtc_ex.o(i.HAL_RTCEx_Tamper3EventCallback), (2 bytes).
    Removing stm32l0xx_hal_rtc_ex.o(i.HAL_RTCEx_TamperTimeStampIRQHandler), (284 bytes).
    Removing stm32l0xx_hal_rtc_ex.o(i.HAL_RTCEx_TimeStampEventCallback), (2 bytes).
    Removing stm32l0xx_hal_rtc_ex.o(i.HAL_RTCEx_WakeUpTimerEventCallback), (2 bytes).
    Removing stm32l0xx_hal_rtc_ex.o(i.HAL_RTCEx_WakeUpTimerIRQHandler), (68 bytes).
    Removing stm32l0xx_hal_tim.o(.rev16_text), (4 bytes).
    Removing stm32l0xx_hal_tim.o(.revsh_text), (4 bytes).
    Removing stm32l0xx_hal_tim.o(i.HAL_TIM_Base_DeInit), (68 bytes).
    Removing stm32l0xx_hal_tim.o(i.HAL_TIM_Base_GetState), (8 bytes).
    Removing stm32l0xx_hal_tim.o(i.HAL_TIM_Base_Init), (56 bytes).
    Removing stm32l0xx_hal_tim.o(i.HAL_TIM_Base_MspDeInit), (2 bytes).
    Removing stm32l0xx_hal_tim.o(i.HAL_TIM_Base_MspInit), (2 bytes).
    Removing stm32l0xx_hal_tim.o(i.HAL_TIM_Base_Start), (30 bytes).
    Removing stm32l0xx_hal_tim.o(i.HAL_TIM_Base_Start_DMA), (108 bytes).
    Removing stm32l0xx_hal_tim.o(i.HAL_TIM_Base_Start_IT), (30 bytes).
    Removing stm32l0xx_hal_tim.o(i.HAL_TIM_Base_Stop), (52 bytes).
    Removing stm32l0xx_hal_tim.o(i.HAL_TIM_Base_Stop_DMA), (60 bytes).
    Removing stm32l0xx_hal_tim.o(i.HAL_TIM_Base_Stop_IT), (52 bytes).
    Removing stm32l0xx_hal_tim.o(i.HAL_TIM_ConfigClockSource), (318 bytes).
    Removing stm32l0xx_hal_tim.o(i.HAL_TIM_ConfigOCrefClear), (252 bytes).
    Removing stm32l0xx_hal_tim.o(i.HAL_TIM_ConfigTI1Input), (34 bytes).
    Removing stm32l0xx_hal_tim.o(i.HAL_TIM_DMABurst_ReadStart), (360 bytes).
    Removing stm32l0xx_hal_tim.o(i.HAL_TIM_DMABurst_ReadStop), (132 bytes).
    Removing stm32l0xx_hal_tim.o(i.HAL_TIM_DMABurst_WriteStart), (360 bytes).
    Removing stm32l0xx_hal_tim.o(i.HAL_TIM_DMABurst_WriteStop), (132 bytes).
    Removing stm32l0xx_hal_tim.o(i.HAL_TIM_Encoder_DeInit), (68 bytes).
    Removing stm32l0xx_hal_tim.o(i.HAL_TIM_Encoder_GetState), (8 bytes).
    Removing stm32l0xx_hal_tim.o(i.HAL_TIM_Encoder_Init), (196 bytes).
    Removing stm32l0xx_hal_tim.o(i.HAL_TIM_Encoder_MspDeInit), (2 bytes).
    Removing stm32l0xx_hal_tim.o(i.HAL_TIM_Encoder_MspInit), (2 bytes).
    Removing stm32l0xx_hal_tim.o(i.HAL_TIM_Encoder_Start), (80 bytes).
    Removing stm32l0xx_hal_tim.o(i.HAL_TIM_Encoder_Start_DMA), (336 bytes).
    Removing stm32l0xx_hal_tim.o(i.HAL_TIM_Encoder_Start_IT), (128 bytes).
    Removing stm32l0xx_hal_tim.o(i.HAL_TIM_Encoder_Stop), (100 bytes).
    Removing stm32l0xx_hal_tim.o(i.HAL_TIM_Encoder_Stop_DMA), (156 bytes).
    Removing stm32l0xx_hal_tim.o(i.HAL_TIM_Encoder_Stop_IT), (148 bytes).
    Removing stm32l0xx_hal_tim.o(i.HAL_TIM_ErrorCallback), (2 bytes).
    Removing stm32l0xx_hal_tim.o(i.HAL_TIM_GenerateEvent), (54 bytes).
    Removing stm32l0xx_hal_tim.o(i.HAL_TIM_IC_CaptureCallback), (2 bytes).
    Removing stm32l0xx_hal_tim.o(i.HAL_TIM_IC_ConfigChannel), (226 bytes).
    Removing stm32l0xx_hal_tim.o(i.HAL_TIM_IC_DeInit), (68 bytes).
    Removing stm32l0xx_hal_tim.o(i.HAL_TIM_IC_GetState), (8 bytes).
    Removing stm32l0xx_hal_tim.o(i.HAL_TIM_IC_Init), (56 bytes).
    Removing stm32l0xx_hal_tim.o(i.HAL_TIM_IC_MspDeInit), (2 bytes).
    Removing stm32l0xx_hal_tim.o(i.HAL_TIM_IC_MspInit), (2 bytes).
    Removing stm32l0xx_hal_tim.o(i.HAL_TIM_IC_Start), (32 bytes).
    Removing stm32l0xx_hal_tim.o(i.HAL_TIM_IC_Start_DMA), (276 bytes).
    Removing stm32l0xx_hal_tim.o(i.HAL_TIM_IC_Start_IT), (110 bytes).
    Removing stm32l0xx_hal_tim.o(i.HAL_TIM_IC_Stop), (52 bytes).
    Removing stm32l0xx_hal_tim.o(i.HAL_TIM_IC_Stop_DMA), (144 bytes).
    Removing stm32l0xx_hal_tim.o(i.HAL_TIM_IC_Stop_IT), (132 bytes).
    Removing stm32l0xx_hal_tim.o(i.HAL_TIM_IRQHandler), (380 bytes).
    Removing stm32l0xx_hal_tim.o(i.HAL_TIM_OC_ConfigChannel), (118 bytes).
    Removing stm32l0xx_hal_tim.o(i.HAL_TIM_OC_DeInit), (68 bytes).
    Removing stm32l0xx_hal_tim.o(i.HAL_TIM_OC_DelayElapsedCallback), (2 bytes).
    Removing stm32l0xx_hal_tim.o(i.HAL_TIM_OC_GetState), (8 bytes).
    Removing stm32l0xx_hal_tim.o(i.HAL_TIM_OC_Init), (56 bytes).
    Removing stm32l0xx_hal_tim.o(i.HAL_TIM_OC_MspDeInit), (2 bytes).
    Removing stm32l0xx_hal_tim.o(i.HAL_TIM_OC_MspInit), (2 bytes).
    Removing stm32l0xx_hal_tim.o(i.HAL_TIM_OC_Start), (32 bytes).
    Removing stm32l0xx_hal_tim.o(i.HAL_TIM_OC_Start_DMA), (276 bytes).
    Removing stm32l0xx_hal_tim.o(i.HAL_TIM_OC_Start_IT), (110 bytes).
    Removing stm32l0xx_hal_tim.o(i.HAL_TIM_OC_Stop), (52 bytes).
    Removing stm32l0xx_hal_tim.o(i.HAL_TIM_OC_Stop_DMA), (144 bytes).
    Removing stm32l0xx_hal_tim.o(i.HAL_TIM_OC_Stop_IT), (132 bytes).
    Removing stm32l0xx_hal_tim.o(i.HAL_TIM_OnePulse_ConfigChannel), (286 bytes).
    Removing stm32l0xx_hal_tim.o(i.HAL_TIM_OnePulse_DeInit), (68 bytes).
    Removing stm32l0xx_hal_tim.o(i.HAL_TIM_OnePulse_GetState), (8 bytes).
    Removing stm32l0xx_hal_tim.o(i.HAL_TIM_OnePulse_Init), (80 bytes).
    Removing stm32l0xx_hal_tim.o(i.HAL_TIM_OnePulse_MspDeInit), (2 bytes).
    Removing stm32l0xx_hal_tim.o(i.HAL_TIM_OnePulse_MspInit), (2 bytes).
    Removing stm32l0xx_hal_tim.o(i.HAL_TIM_OnePulse_Start), (30 bytes).
    Removing stm32l0xx_hal_tim.o(i.HAL_TIM_OnePulse_Start_IT), (54 bytes).
    Removing stm32l0xx_hal_tim.o(i.HAL_TIM_OnePulse_Stop), (64 bytes).
    Removing stm32l0xx_hal_tim.o(i.HAL_TIM_OnePulse_Stop_IT), (88 bytes).
    Removing stm32l0xx_hal_tim.o(i.HAL_TIM_PWM_ConfigChannel), (274 bytes).
    Removing stm32l0xx_hal_tim.o(i.HAL_TIM_PWM_DeInit), (68 bytes).
    Removing stm32l0xx_hal_tim.o(i.HAL_TIM_PWM_GetState), (8 bytes).
    Removing stm32l0xx_hal_tim.o(i.HAL_TIM_PWM_Init), (56 bytes).
    Removing stm32l0xx_hal_tim.o(i.HAL_TIM_PWM_MspDeInit), (2 bytes).
    Removing stm32l0xx_hal_tim.o(i.HAL_TIM_PWM_MspInit), (2 bytes).
    Removing stm32l0xx_hal_tim.o(i.HAL_TIM_PWM_PulseFinishedCallback), (2 bytes).
    Removing stm32l0xx_hal_tim.o(i.HAL_TIM_PWM_Start), (32 bytes).
    Removing stm32l0xx_hal_tim.o(i.HAL_TIM_PWM_Start_DMA), (276 bytes).
    Removing stm32l0xx_hal_tim.o(i.HAL_TIM_PWM_Start_IT), (110 bytes).
    Removing stm32l0xx_hal_tim.o(i.HAL_TIM_PWM_Stop), (60 bytes).
    Removing stm32l0xx_hal_tim.o(i.HAL_TIM_PWM_Stop_DMA), (144 bytes).
    Removing stm32l0xx_hal_tim.o(i.HAL_TIM_PWM_Stop_IT), (132 bytes).
    Removing stm32l0xx_hal_tim.o(i.HAL_TIM_PeriodElapsedCallback), (2 bytes).
    Removing stm32l0xx_hal_tim.o(i.HAL_TIM_ReadCapturedValue), (88 bytes).
    Removing stm32l0xx_hal_tim.o(i.HAL_TIM_SlaveConfigSynchronization), (88 bytes).
    Removing stm32l0xx_hal_tim.o(i.HAL_TIM_SlaveConfigSynchronization_IT), (88 bytes).
    Removing stm32l0xx_hal_tim.o(i.HAL_TIM_TriggerCallback), (2 bytes).
    Removing stm32l0xx_hal_tim.o(i.TIM_Base_SetConfig), (132 bytes).
    Removing stm32l0xx_hal_tim.o(i.TIM_CCxChannelCmd), (28 bytes).
    Removing stm32l0xx_hal_tim.o(i.TIM_DMACaptureCplt), (70 bytes).
    Removing stm32l0xx_hal_tim.o(i.TIM_DMADelayPulseCplt), (70 bytes).
    Removing stm32l0xx_hal_tim.o(i.TIM_DMAError), (20 bytes).
    Removing stm32l0xx_hal_tim.o(i.TIM_DMAPeriodElapsedCplt), (20 bytes).
    Removing stm32l0xx_hal_tim.o(i.TIM_DMATriggerCplt), (20 bytes).
    Removing stm32l0xx_hal_tim.o(i.TIM_ETR_SetConfig), (30 bytes).
    Removing stm32l0xx_hal_tim.o(i.TIM_ITRx_SetConfig), (26 bytes).
    Removing stm32l0xx_hal_tim.o(i.TIM_OC1_SetConfig), (62 bytes).
    Removing stm32l0xx_hal_tim.o(i.TIM_OC2_SetConfig), (74 bytes).
    Removing stm32l0xx_hal_tim.o(i.TIM_OC3_SetConfig), (68 bytes).
    Removing stm32l0xx_hal_tim.o(i.TIM_OC4_SetConfig), (78 bytes).
    Removing stm32l0xx_hal_tim.o(i.TIM_SlaveTimer_SetConfig), (172 bytes).
    Removing stm32l0xx_hal_tim.o(i.TIM_TI1_ConfigInputStage), (54 bytes).
    Removing stm32l0xx_hal_tim.o(i.TIM_TI1_SetConfig), (124 bytes).
    Removing stm32l0xx_hal_tim.o(i.TIM_TI2_ConfigInputStage), (54 bytes).
    Removing stm32l0xx_hal_tim.o(i.TIM_TI2_SetConfig), (76 bytes).
    Removing stm32l0xx_hal_tim.o(i.TIM_TI3_SetConfig), (74 bytes).
    Removing stm32l0xx_hal_tim.o(i.TIM_TI4_SetConfig), (82 bytes).
    Removing stm32l0xx_hal_tim_ex.o(.rev16_text), (4 bytes).
    Removing stm32l0xx_hal_tim_ex.o(.revsh_text), (4 bytes).
    Removing stm32l0xx_hal_tim_ex.o(i.HAL_TIMEx_MasterConfigSynchronization), (98 bytes).
    Removing stm32l0xx_hal_tim_ex.o(i.HAL_TIMEx_RemapConfig), (46 bytes).
    Removing stm32l0xx_hal_adc_ex.o(.rev16_text), (4 bytes).
    Removing stm32l0xx_hal_adc_ex.o(.revsh_text), (4 bytes).
    Removing stm32l0xx_hal_adc_ex.o(i.HAL_ADCEx_Calibration_GetValue), (14 bytes).
    Removing stm32l0xx_hal_adc_ex.o(i.HAL_ADCEx_Calibration_SetValue), (140 bytes).
    Removing stm32l0xx_hal_adc_ex.o(i.HAL_ADCEx_Calibration_Start), (216 bytes).
    Removing stm32l0xx_hal_adc_ex.o(i.HAL_ADCEx_DisableVREFINT), (20 bytes).
    Removing stm32l0xx_hal_adc_ex.o(i.HAL_ADCEx_DisableVREFINTTempSensor), (20 bytes).
    Removing stm32l0xx_hal_adc_ex.o(i.HAL_ADCEx_EnableVREFINT), (64 bytes).
    Removing stm32l0xx_hal_adc_ex.o(i.HAL_ADCEx_EnableVREFINTTempSensor), (64 bytes).
    Removing stm32l0xx_hal_uart_ex.o(.rev16_text), (4 bytes).
    Removing stm32l0xx_hal_uart_ex.o(.revsh_text), (4 bytes).
    Removing stm32l0xx_hal_uart_ex.o(i.HAL_MultiProcessorEx_AddressLength_Set), (66 bytes).
    Removing stm32l0xx_hal_uart_ex.o(i.HAL_RS485Ex_Init), (160 bytes).
    Removing stm32l0xx_hal_uart_ex.o(i.HAL_UARTEx_DisableClockStopMode), (64 bytes).
    Removing stm32l0xx_hal_uart_ex.o(i.HAL_UARTEx_DisableStopMode), (62 bytes).
    Removing stm32l0xx_hal_uart_ex.o(i.HAL_UARTEx_EnableClockStopMode), (64 bytes).
    Removing stm32l0xx_hal_uart_ex.o(i.HAL_UARTEx_EnableStopMode), (62 bytes).
    Removing stm32l0xx_hal_uart_ex.o(i.HAL_UARTEx_StopModeWakeUpSourceConfig), (156 bytes).
    Removing stm32l0xx_hal_uart_ex.o(i.HAL_UARTEx_WakeupCallback), (2 bytes).
    Removing stm32l0xx_hal_uart_ex.o(i.UARTEx_Wakeup_AddressConfig), (54 bytes).
    Removing stm32l0xx_hal_i2c.o(.rev16_text), (4 bytes).
    Removing stm32l0xx_hal_i2c.o(.revsh_text), (4 bytes).
    Removing stm32l0xx_hal_i2c.o(i.HAL_I2C_AbortCpltCallback), (2 bytes).
    Removing stm32l0xx_hal_i2c.o(i.HAL_I2C_AddrCallback), (2 bytes).
    Removing stm32l0xx_hal_i2c.o(i.HAL_I2C_DeInit), (66 bytes).
    Removing stm32l0xx_hal_i2c.o(i.HAL_I2C_DisableListen_IT), (60 bytes).
    Removing stm32l0xx_hal_i2c.o(i.HAL_I2C_ER_IRQHandler), (128 bytes).
    Removing stm32l0xx_hal_i2c.o(i.HAL_I2C_EV_IRQHandler), (30 bytes).
    Removing stm32l0xx_hal_i2c.o(i.HAL_I2C_EnableListen_IT), (44 bytes).
    Removing stm32l0xx_hal_i2c.o(i.HAL_I2C_ErrorCallback), (2 bytes).
    Removing stm32l0xx_hal_i2c.o(i.HAL_I2C_GetError), (6 bytes).
    Removing stm32l0xx_hal_i2c.o(i.HAL_I2C_GetMode), (8 bytes).
    Removing stm32l0xx_hal_i2c.o(i.HAL_I2C_GetState), (8 bytes).
    Removing stm32l0xx_hal_i2c.o(i.HAL_I2C_Init), (212 bytes).
    Removing stm32l0xx_hal_i2c.o(i.HAL_I2C_IsDeviceReady), (398 bytes).
    Removing stm32l0xx_hal_i2c.o(i.HAL_I2C_ListenCpltCallback), (2 bytes).
    Removing stm32l0xx_hal_i2c.o(i.HAL_I2C_MasterRxCpltCallback), (2 bytes).
    Removing stm32l0xx_hal_i2c.o(i.HAL_I2C_MasterTxCpltCallback), (2 bytes).
    Removing stm32l0xx_hal_i2c.o(i.HAL_I2C_Master_Abort_IT), (102 bytes).
    Removing stm32l0xx_hal_i2c.o(i.HAL_I2C_Master_Receive), (384 bytes).
    Removing stm32l0xx_hal_i2c.o(i.HAL_I2C_Master_Receive_DMA), (300 bytes).
    Removing stm32l0xx_hal_i2c.o(i.HAL_I2C_Master_Receive_IT), (172 bytes).
    Removing stm32l0xx_hal_i2c.o(i.HAL_I2C_Master_Sequential_Receive_IT), (160 bytes).
    Removing stm32l0xx_hal_i2c.o(i.HAL_I2C_Master_Sequential_Transmit_IT), (160 bytes).
    Removing stm32l0xx_hal_i2c.o(i.HAL_I2C_Master_Transmit), (380 bytes).
    Removing stm32l0xx_hal_i2c.o(i.HAL_I2C_Master_Transmit_DMA), (300 bytes).
    Removing stm32l0xx_hal_i2c.o(i.HAL_I2C_Master_Transmit_IT), (172 bytes).
    Removing stm32l0xx_hal_i2c.o(i.HAL_I2C_MemRxCpltCallback), (2 bytes).
    Removing stm32l0xx_hal_i2c.o(i.HAL_I2C_MemTxCpltCallback), (2 bytes).
    Removing stm32l0xx_hal_i2c.o(i.HAL_I2C_Mem_Read), (452 bytes).
    Removing stm32l0xx_hal_i2c.o(i.HAL_I2C_Mem_Read_DMA), (320 bytes).
    Removing stm32l0xx_hal_i2c.o(i.HAL_I2C_Mem_Read_IT), (256 bytes).
    Removing stm32l0xx_hal_i2c.o(i.HAL_I2C_Mem_Write), (452 bytes).
    Removing stm32l0xx_hal_i2c.o(i.HAL_I2C_Mem_Write_DMA), (320 bytes).
    Removing stm32l0xx_hal_i2c.o(i.HAL_I2C_Mem_Write_IT), (252 bytes).
    Removing stm32l0xx_hal_i2c.o(i.HAL_I2C_MspDeInit), (2 bytes).
    Removing stm32l0xx_hal_i2c.o(i.HAL_I2C_MspInit), (2 bytes).
    Removing stm32l0xx_hal_i2c.o(i.HAL_I2C_SlaveRxCpltCallback), (2 bytes).
    Removing stm32l0xx_hal_i2c.o(i.HAL_I2C_SlaveTxCpltCallback), (2 bytes).
    Removing stm32l0xx_hal_i2c.o(i.HAL_I2C_Slave_Receive), (406 bytes).
    Removing stm32l0xx_hal_i2c.o(i.HAL_I2C_Slave_Receive_DMA), (192 bytes).
    Removing stm32l0xx_hal_i2c.o(i.HAL_I2C_Slave_Receive_IT), (116 bytes).
    Removing stm32l0xx_hal_i2c.o(i.HAL_I2C_Slave_Sequential_Receive_IT), (172 bytes).
    Removing stm32l0xx_hal_i2c.o(i.HAL_I2C_Slave_Sequential_Transmit_IT), (176 bytes).
    Removing stm32l0xx_hal_i2c.o(i.HAL_I2C_Slave_Transmit), (422 bytes).
    Removing stm32l0xx_hal_i2c.o(i.HAL_I2C_Slave_Transmit_DMA), (192 bytes).
    Removing stm32l0xx_hal_i2c.o(i.HAL_I2C_Slave_Transmit_IT), (116 bytes).
    Removing stm32l0xx_hal_i2c.o(i.I2C_DMAAbort), (60 bytes).
    Removing stm32l0xx_hal_i2c.o(i.I2C_DMAError), (30 bytes).
    Removing stm32l0xx_hal_i2c.o(i.I2C_DMAMasterReceiveCplt), (86 bytes).
    Removing stm32l0xx_hal_i2c.o(i.I2C_DMAMasterTransmitCplt), (86 bytes).
    Removing stm32l0xx_hal_i2c.o(i.I2C_DMASlaveReceiveCplt), (2 bytes).
    Removing stm32l0xx_hal_i2c.o(i.I2C_DMASlaveTransmitCplt), (2 bytes).
    Removing stm32l0xx_hal_i2c.o(i.I2C_Disable_IRQ), (126 bytes).
    Removing stm32l0xx_hal_i2c.o(i.I2C_Enable_IRQ), (144 bytes).
    Removing stm32l0xx_hal_i2c.o(i.I2C_Flush_TXDR), (50 bytes).
    Removing stm32l0xx_hal_i2c.o(i.I2C_ITAddrCplt), (214 bytes).
    Removing stm32l0xx_hal_i2c.o(i.I2C_ITError), (280 bytes).
    Removing stm32l0xx_hal_i2c.o(i.I2C_ITListenCplt), (116 bytes).
    Removing stm32l0xx_hal_i2c.o(i.I2C_ITMasterCplt), (236 bytes).
    Removing stm32l0xx_hal_i2c.o(i.I2C_ITMasterSequentialCplt), (98 bytes).
    Removing stm32l0xx_hal_i2c.o(i.I2C_ITSlaveCplt), (316 bytes).
    Removing stm32l0xx_hal_i2c.o(i.I2C_ITSlaveSequentialCplt), (98 bytes).
    Removing stm32l0xx_hal_i2c.o(i.I2C_IsAcknowledgeFailed), (148 bytes).
    Removing stm32l0xx_hal_i2c.o(i.I2C_Master_ISR_DMA), (266 bytes).
    Removing stm32l0xx_hal_i2c.o(i.I2C_Master_ISR_IT), (428 bytes).
    Removing stm32l0xx_hal_i2c.o(i.I2C_RequestMemoryRead), (146 bytes).
    Removing stm32l0xx_hal_i2c.o(i.I2C_RequestMemoryWrite), (146 bytes).
    Removing stm32l0xx_hal_i2c.o(i.I2C_Slave_ISR_DMA), (158 bytes).
    Removing stm32l0xx_hal_i2c.o(i.I2C_Slave_ISR_IT), (352 bytes).
    Removing stm32l0xx_hal_i2c.o(i.I2C_TransferConfig), (48 bytes).
    Removing stm32l0xx_hal_i2c.o(i.I2C_WaitOnFlagUntilTimeout), (82 bytes).
    Removing stm32l0xx_hal_i2c.o(i.I2C_WaitOnRXNEFlagUntilTimeout), (152 bytes).
    Removing stm32l0xx_hal_i2c.o(i.I2C_WaitOnSTOPFlagUntilTimeout), (90 bytes).
    Removing stm32l0xx_hal_i2c.o(i.I2C_WaitOnTXISFlagUntilTimeout), (96 bytes).
    Removing startup_stm32l072xx.o(HEAP), (512 bytes).
    Removing debug.o(.rev16_text), (4 bytes).
    Removing debug.o(.revsh_text), (4 bytes).
    Removing hw_gpio.o(.rev16_text), (4 bytes).
    Removing hw_gpio.o(.revsh_text), (4 bytes).
    Removing hw_gpio.o(i.HW_GPIO_Read), (16 bytes).
    Removing hw_rtc.o(.rev16_text), (4 bytes).
    Removing hw_rtc.o(.revsh_text), (4 bytes).
    Removing hw_rtc.o(i.HW_RTC_getMcuWakeUpTime), (12 bytes).
    Removing hw_rtc.o(i.HW_RTC_setMcuWakeUpTime), (136 bytes).
    Removing hw_spi.o(.rev16_text), (4 bytes).
    Removing hw_spi.o(.revsh_text), (4 bytes).
    Removing hw_spi.o(i.HW_SPI_DeInit), (172 bytes).
    Removing main.o(.rev16_text), (4 bytes).
    Removing main.o(.revsh_text), (4 bytes).
    Removing main.o(.constdata), (6 bytes).
    Removing vcom.o(.rev16_text), (4 bytes).
    Removing vcom.o(.revsh_text), (4 bytes).
    Removing vcom.o(i.HAL_UART_MspDeInit), (10 bytes).
    Removing vcom.o(i.vcom_DeInit), (16 bytes).
    Removing vcom.o(i.vcom_IoDeInit), (112 bytes).
    Removing vcom.o(i.vcom_Send_Lp), (148 bytes).
    Removing mlm32l0xx_hal_msp.o(.rev16_text), (4 bytes).
    Removing mlm32l0xx_hal_msp.o(.revsh_text), (4 bytes).
    Removing mlm32l0xx_hal_msp.o(i.HAL_Delay), (10 bytes).
    Removing mlm32l0xx_hal_msp.o(i.HAL_RTC_MspDeInit), (20 bytes).
    Removing mlm32l0xx_it.o(.rev16_text), (4 bytes).
    Removing mlm32l0xx_it.o(.revsh_text), (4 bytes).
    Removing mlm32l0xx_it.o(i.BusFault_Handler), (4 bytes).
    Removing mlm32l0xx_it.o(i.DebugMon_Handler), (2 bytes).
    Removing mlm32l0xx_it.o(i.MemManage_Handler), (4 bytes).
    Removing mlm32l0xx_it.o(i.UsageFault_Handler), (4 bytes).
    Removing mlm32l0xx_hw.o(.rev16_text), (4 bytes).
    Removing mlm32l0xx_hw.o(.revsh_text), (4 bytes).
    Removing mlm32l0xx_hw.o(i.HW_AdcDeInit), (12 bytes).
    Removing mlm32l0xx_hw.o(i.HW_AdcReadChannel), (176 bytes).
    Removing mlm32l0xx_hw.o(i.HW_DeInit), (32 bytes).
    Removing mlm32l0xx_hw.o(i.HW_GetBatteryLevel), (100 bytes).
    Removing mlm32l0xx_hw.o(i.HW_GetRandomSeed), (24 bytes).
    Removing mlm32l0xx_hw.o(i.HW_GetUniqueId), (100 bytes).
    Removing mlm32l0xx_hw.o(i.LPM_EnterSleepMode), (12 bytes).
    Removing mlm32l0xx_hw.o(i.LPM_EnterStopMode), (52 bytes).
    Removing mlm32l0xx_hw.o(i.LPM_ExitStopMode), (116 bytes).
    Removing mlm32l0xx_hw.o(i.SystemClock_STANDBYMode_Config), (152 bytes).
    Removing delay.o(.rev16_text), (4 bytes).
    Removing delay.o(.revsh_text), (4 bytes).
    Removing delay.o(i.Delay), (32 bytes).
    Removing low_power_manager.o(.rev16_text), (4 bytes).
    Removing low_power_manager.o(.revsh_text), (4 bytes).
    Removing low_power_manager.o(i.LPM_EnterLowPower), (56 bytes).
    Removing low_power_manager.o(i.LPM_EnterOffMode), (60 bytes).
    Removing low_power_manager.o(i.LPM_EnterSleepMode), (2 bytes).
    Removing low_power_manager.o(i.LPM_EnterStopMode), (2 bytes).
    Removing low_power_manager.o(i.LPM_ExitOffMode), (2 bytes).
    Removing low_power_manager.o(i.LPM_ExitSleepMode), (2 bytes).
    Removing low_power_manager.o(i.LPM_ExitStopMode), (2 bytes).
    Removing low_power_manager.o(i.LPM_SetOffMode), (64 bytes).
    Removing timeserver.o(.rev16_text), (4 bytes).
    Removing timeserver.o(.revsh_text), (4 bytes).
    Removing timeserver.o(i.TimerReset), (18 bytes).
    Removing utilities.o(.rev16_text), (4 bytes).
    Removing utilities.o(.revsh_text), (4 bytes).
    Removing utilities.o(i.Nibble2HexChar), (30 bytes).
    Removing utilities.o(i.memcpyr), (28 bytes).
    Removing utilities.o(i.memset1), (20 bytes).
    Removing utilities.o(i.rand1), (48 bytes).
    Removing utilities.o(i.randr), (26 bytes).
    Removing utilities.o(i.srand1), (12 bytes).
    Removing utilities.o(.data), (4 bytes).
    Removing fmul.o(.text), (122 bytes).
    Removing ffixui.o(.text), (40 bytes).

563 unused section(s) (total 48966 bytes) removed from the image.

==============================================================================

Image Symbol Table

    Local Symbols

    Symbol Name                              Value     Ov Type        Size  Object(Section)

    ../clib/microlib/division.c              0x00000000   Number         0  uidiv.o ABSOLUTE
    ../clib/microlib/division.c              0x00000000   Number         0  idiv.o ABSOLUTE
    ../clib/microlib/division.c              0x00000000   Number         0  uldiv.o ABSOLUTE
    ../clib/microlib/init/entry.s            0x00000000   Number         0  entry5.o ABSOLUTE
    ../clib/microlib/init/entry.s            0x00000000   Number         0  entry7a.o ABSOLUTE
    ../clib/microlib/init/entry.s            0x00000000   Number         0  entry7b.o ABSOLUTE
    ../clib/microlib/init/entry.s            0x00000000   Number         0  entry11b.o ABSOLUTE
    ../clib/microlib/init/entry.s            0x00000000   Number         0  entry11a.o ABSOLUTE
    ../clib/microlib/init/entry.s            0x00000000   Number         0  entry10b.o ABSOLUTE
    ../clib/microlib/init/entry.s            0x00000000   Number         0  entry10a.o ABSOLUTE
    ../clib/microlib/init/entry.s            0x00000000   Number         0  entry9b.o ABSOLUTE
    ../clib/microlib/init/entry.s            0x00000000   Number         0  entry9a.o ABSOLUTE
    ../clib/microlib/init/entry.s            0x00000000   Number         0  entry.o ABSOLUTE
    ../clib/microlib/init/entry.s            0x00000000   Number         0  entry8b.o ABSOLUTE
    ../clib/microlib/init/entry.s            0x00000000   Number         0  entry2.o ABSOLUTE
    ../clib/microlib/init/entry.s            0x00000000   Number         0  entry8a.o ABSOLUTE
    ../clib/microlib/longlong.c              0x00000000   Number         0  llsshr.o ABSOLUTE
    ../clib/microlib/longlong.c              0x00000000   Number         0  llshl.o ABSOLUTE
    ../clib/microlib/longlong.c              0x00000000   Number         0  llushr.o ABSOLUTE
    ../clib/microlib/printf/printf.c         0x00000000   Number         0  printfa.o ABSOLUTE
    ../clib/microlib/stdio/fputc.c           0x00000000   Number         0  fputc.o ABSOLUTE
    ../clib/microlib/stdio/semi.s            0x00000000   Number         0  semi.o ABSOLUTE
    ../clib/microlib/stdio/streams.c         0x00000000   Number         0  stdout.o ABSOLUTE
    ../clib/microlib/string/memcpy.c         0x00000000   Number         0  memcpyb.o ABSOLUTE
    ../clib/microlib/string/memcpy.c         0x00000000   Number         0  memcpya.o ABSOLUTE
    ../clib/microlib/string/memset.c         0x00000000   Number         0  memseta.o ABSOLUTE
    ../clib/microlib/string/strncmp.c        0x00000000   Number         0  strncmp.o ABSOLUTE
    ../clib/microlib/stubs.s                 0x00000000   Number         0  iusesemip.o ABSOLUTE
    ../clib/microlib/stubs.s                 0x00000000   Number         0  iusefp.o ABSOLUTE
    ../fplib/microlib/fpadd.c                0x00000000   Number         0  dadd.o ABSOLUTE
    ../fplib/microlib/fpdiv.c                0x00000000   Number         0  ddiv.o ABSOLUTE
    ../fplib/microlib/fpepilogue.c           0x00000000   Number         0  depilogue.o ABSOLUTE
    ../fplib/microlib/fpfix.c                0x00000000   Number         0  ffixui.o ABSOLUTE
    ../fplib/microlib/fpfix.c                0x00000000   Number         0  dfixul.o ABSOLUTE
    ../fplib/microlib/fpfix.c                0x00000000   Number         0  dfixui.o ABSOLUTE
    ../fplib/microlib/fpflt.c                0x00000000   Number         0  dfltui.o ABSOLUTE
    ../fplib/microlib/fpflt.c                0x00000000   Number         0  dflti.o ABSOLUTE
    ../fplib/microlib/fpmul.c                0x00000000   Number         0  fmul.o ABSOLUTE
    ../fplib/microlib/fpmul.c                0x00000000   Number         0  dmul.o ABSOLUTE
    ../fplib/microlib/fprnd.c                0x00000000   Number         0  drnd.o ABSOLUTE
    ../mathlib/ceil.c                        0x00000000   Number         0  ceil.o ABSOLUTE
    ../mathlib/floor.c                       0x00000000   Number         0  floor.o ABSOLUTE
    ../mathlib/round.c                       0x00000000   Number         0  round.o ABSOLUTE
    ..\..\..\..\..\..\..\Drivers\BSP\B-L072Z-LRWAN1\b-l072z-lrwan1.c 0x00000000   Number         0  b-l072z-lrwan1.o ABSOLUTE
    ..\..\..\..\..\..\..\Drivers\BSP\Components\sx1276\sx1276.c 0x00000000   Number         0  sx1276.o ABSOLUTE
    ..\..\..\..\..\..\..\Drivers\BSP\MLM32L07X01\mlm32l07x01.c 0x00000000   Number         0  mlm32l07x01.o ABSOLUTE
    ..\..\..\..\..\..\..\Drivers\CMSIS\Device\ST\STM32L0xx\Source\Templates\system_stm32l0xx.c 0x00000000   Number         0  system_stm32l0xx.o ABSOLUTE
    ..\..\..\..\..\..\..\Drivers\STM32L0xx_HAL_Driver\Src\stm32l0xx_hal.c 0x00000000   Number         0  stm32l0xx_hal.o ABSOLUTE
    ..\..\..\..\..\..\..\Drivers\STM32L0xx_HAL_Driver\Src\stm32l0xx_hal_adc.c 0x00000000   Number         0  stm32l0xx_hal_adc.o ABSOLUTE
    ..\..\..\..\..\..\..\Drivers\STM32L0xx_HAL_Driver\Src\stm32l0xx_hal_adc_ex.c 0x00000000   Number         0  stm32l0xx_hal_adc_ex.o ABSOLUTE
    ..\..\..\..\..\..\..\Drivers\STM32L0xx_HAL_Driver\Src\stm32l0xx_hal_cortex.c 0x00000000   Number         0  stm32l0xx_hal_cortex.o ABSOLUTE
    ..\..\..\..\..\..\..\Drivers\STM32L0xx_HAL_Driver\Src\stm32l0xx_hal_dma.c 0x00000000   Number         0  stm32l0xx_hal_dma.o ABSOLUTE
    ..\..\..\..\..\..\..\Drivers\STM32L0xx_HAL_Driver\Src\stm32l0xx_hal_gpio.c 0x00000000   Number         0  stm32l0xx_hal_gpio.o ABSOLUTE
    ..\..\..\..\..\..\..\Drivers\STM32L0xx_HAL_Driver\Src\stm32l0xx_hal_i2c.c 0x00000000   Number         0  stm32l0xx_hal_i2c.o ABSOLUTE
    ..\..\..\..\..\..\..\Drivers\STM32L0xx_HAL_Driver\Src\stm32l0xx_hal_pwr.c 0x00000000   Number         0  stm32l0xx_hal_pwr.o ABSOLUTE
    ..\..\..\..\..\..\..\Drivers\STM32L0xx_HAL_Driver\Src\stm32l0xx_hal_pwr_ex.c 0x00000000   Number         0  stm32l0xx_hal_pwr_ex.o ABSOLUTE
    ..\..\..\..\..\..\..\Drivers\STM32L0xx_HAL_Driver\Src\stm32l0xx_hal_rcc.c 0x00000000   Number         0  stm32l0xx_hal_rcc.o ABSOLUTE
    ..\..\..\..\..\..\..\Drivers\STM32L0xx_HAL_Driver\Src\stm32l0xx_hal_rcc_ex.c 0x00000000   Number         0  stm32l0xx_hal_rcc_ex.o ABSOLUTE
    ..\..\..\..\..\..\..\Drivers\STM32L0xx_HAL_Driver\Src\stm32l0xx_hal_rtc.c 0x00000000   Number         0  stm32l0xx_hal_rtc.o ABSOLUTE
    ..\..\..\..\..\..\..\Drivers\STM32L0xx_HAL_Driver\Src\stm32l0xx_hal_rtc_ex.c 0x00000000   Number         0  stm32l0xx_hal_rtc_ex.o ABSOLUTE
    ..\..\..\..\..\..\..\Drivers\STM32L0xx_HAL_Driver\Src\stm32l0xx_hal_spi.c 0x00000000   Number         0  stm32l0xx_hal_spi.o ABSOLUTE
    ..\..\..\..\..\..\..\Drivers\STM32L0xx_HAL_Driver\Src\stm32l0xx_hal_tim.c 0x00000000   Number         0  stm32l0xx_hal_tim.o ABSOLUTE
    ..\..\..\..\..\..\..\Drivers\STM32L0xx_HAL_Driver\Src\stm32l0xx_hal_tim_ex.c 0x00000000   Number         0  stm32l0xx_hal_tim_ex.o ABSOLUTE
    ..\..\..\..\..\..\..\Drivers\STM32L0xx_HAL_Driver\Src\stm32l0xx_hal_uart.c 0x00000000   Number         0  stm32l0xx_hal_uart.o ABSOLUTE
    ..\..\..\..\..\..\..\Drivers\STM32L0xx_HAL_Driver\Src\stm32l0xx_hal_uart_ex.c 0x00000000   Number         0  stm32l0xx_hal_uart_ex.o ABSOLUTE
    ..\..\..\..\..\..\..\Middlewares\Third_Party\Lora\Utilities\delay.c 0x00000000   Number         0  delay.o ABSOLUTE
    ..\..\..\..\..\..\..\Middlewares\Third_Party\Lora\Utilities\low_power_manager.c 0x00000000   Number         0  low_power_manager.o ABSOLUTE
    ..\..\..\..\..\..\..\Middlewares\Third_Party\Lora\Utilities\timeServer.c 0x00000000   Number         0  timeserver.o ABSOLUTE
    ..\..\..\..\..\..\..\Middlewares\Third_Party\Lora\Utilities\utilities.c 0x00000000   Number         0  utilities.o ABSOLUTE
    ..\..\src\debug.c                        0x00000000   Number         0  debug.o ABSOLUTE
    ..\..\src\hw_gpio.c                      0x00000000   Number         0  hw_gpio.o ABSOLUTE
    ..\..\src\hw_rtc.c                       0x00000000   Number         0  hw_rtc.o ABSOLUTE
    ..\..\src\hw_spi.c                       0x00000000   Number         0  hw_spi.o ABSOLUTE
    ..\..\src\main.c                         0x00000000   Number         0  main.o ABSOLUTE
    ..\..\src\mlm32l0xx_hal_msp.c            0x00000000   Number         0  mlm32l0xx_hal_msp.o ABSOLUTE
    ..\..\src\mlm32l0xx_hw.c                 0x00000000   Number         0  mlm32l0xx_hw.o ABSOLUTE
    ..\..\src\mlm32l0xx_it.c                 0x00000000   Number         0  mlm32l0xx_it.o ABSOLUTE
    ..\..\src\vcom.c                         0x00000000   Number         0  vcom.o ABSOLUTE
    ..\\..\\..\\..\\..\\..\\..\\Drivers\\BSP\\B-L072Z-LRWAN1\\b-l072z-lrwan1.c 0x00000000   Number         0  b-l072z-lrwan1.o ABSOLUTE
    ..\\..\\..\\..\\..\\..\\..\\Drivers\\BSP\\Components\\sx1276\\sx1276.c 0x00000000   Number         0  sx1276.o ABSOLUTE
    ..\\..\\..\\..\\..\\..\\..\\Drivers\\BSP\\MLM32L07X01\\mlm32l07x01.c 0x00000000   Number         0  mlm32l07x01.o ABSOLUTE
    ..\\..\\..\\..\\..\\..\\..\\Drivers\\CMSIS\\Device\\ST\\STM32L0xx\\Source\\Templates\\system_stm32l0xx.c 0x00000000   Number         0  system_stm32l0xx.o ABSOLUTE
    ..\\..\\..\\..\\..\\..\\..\\Drivers\\STM32L0xx_HAL_Driver\\Src\\stm32l0xx_hal.c 0x00000000   Number         0  stm32l0xx_hal.o ABSOLUTE
    ..\\..\\..\\..\\..\\..\\..\\Drivers\\STM32L0xx_HAL_Driver\\Src\\stm32l0xx_hal_adc.c 0x00000000   Number         0  stm32l0xx_hal_adc.o ABSOLUTE
    ..\\..\\..\\..\\..\\..\\..\\Drivers\\STM32L0xx_HAL_Driver\\Src\\stm32l0xx_hal_adc_ex.c 0x00000000   Number         0  stm32l0xx_hal_adc_ex.o ABSOLUTE
    ..\\..\\..\\..\\..\\..\\..\\Drivers\\STM32L0xx_HAL_Driver\\Src\\stm32l0xx_hal_cortex.c 0x00000000   Number         0  stm32l0xx_hal_cortex.o ABSOLUTE
    ..\\..\\..\\..\\..\\..\\..\\Drivers\\STM32L0xx_HAL_Driver\\Src\\stm32l0xx_hal_dma.c 0x00000000   Number         0  stm32l0xx_hal_dma.o ABSOLUTE
    ..\\..\\..\\..\\..\\..\\..\\Drivers\\STM32L0xx_HAL_Driver\\Src\\stm32l0xx_hal_gpio.c 0x00000000   Number         0  stm32l0xx_hal_gpio.o ABSOLUTE
    ..\\..\\..\\..\\..\\..\\..\\Drivers\\STM32L0xx_HAL_Driver\\Src\\stm32l0xx_hal_i2c.c 0x00000000   Number         0  stm32l0xx_hal_i2c.o ABSOLUTE
    ..\\..\\..\\..\\..\\..\\..\\Drivers\\STM32L0xx_HAL_Driver\\Src\\stm32l0xx_hal_pwr.c 0x00000000   Number         0  stm32l0xx_hal_pwr.o ABSOLUTE
    ..\\..\\..\\..\\..\\..\\..\\Drivers\\STM32L0xx_HAL_Driver\\Src\\stm32l0xx_hal_pwr_ex.c 0x00000000   Number         0  stm32l0xx_hal_pwr_ex.o ABSOLUTE
    ..\\..\\..\\..\\..\\..\\..\\Drivers\\STM32L0xx_HAL_Driver\\Src\\stm32l0xx_hal_rcc.c 0x00000000   Number         0  stm32l0xx_hal_rcc.o ABSOLUTE
    ..\\..\\..\\..\\..\\..\\..\\Drivers\\STM32L0xx_HAL_Driver\\Src\\stm32l0xx_hal_rcc_ex.c 0x00000000   Number         0  stm32l0xx_hal_rcc_ex.o ABSOLUTE
    ..\\..\\..\\..\\..\\..\\..\\Drivers\\STM32L0xx_HAL_Driver\\Src\\stm32l0xx_hal_rtc.c 0x00000000   Number         0  stm32l0xx_hal_rtc.o ABSOLUTE
    ..\\..\\..\\..\\..\\..\\..\\Drivers\\STM32L0xx_HAL_Driver\\Src\\stm32l0xx_hal_rtc_ex.c 0x00000000   Number         0  stm32l0xx_hal_rtc_ex.o ABSOLUTE
    ..\\..\\..\\..\\..\\..\\..\\Drivers\\STM32L0xx_HAL_Driver\\Src\\stm32l0xx_hal_spi.c 0x00000000   Number         0  stm32l0xx_hal_spi.o ABSOLUTE
    ..\\..\\..\\..\\..\\..\\..\\Drivers\\STM32L0xx_HAL_Driver\\Src\\stm32l0xx_hal_tim.c 0x00000000   Number         0  stm32l0xx_hal_tim.o ABSOLUTE
    ..\\..\\..\\..\\..\\..\\..\\Drivers\\STM32L0xx_HAL_Driver\\Src\\stm32l0xx_hal_tim_ex.c 0x00000000   Number         0  stm32l0xx_hal_tim_ex.o ABSOLUTE
    ..\\..\\..\\..\\..\\..\\..\\Drivers\\STM32L0xx_HAL_Driver\\Src\\stm32l0xx_hal_uart.c 0x00000000   Number         0  stm32l0xx_hal_uart.o ABSOLUTE
    ..\\..\\..\\..\\..\\..\\..\\Drivers\\STM32L0xx_HAL_Driver\\Src\\stm32l0xx_hal_uart_ex.c 0x00000000   Number         0  stm32l0xx_hal_uart_ex.o ABSOLUTE
    ..\\..\\..\\..\\..\\..\\..\\Middlewares\\Third_Party\\Lora\\Utilities\\delay.c 0x00000000   Number         0  delay.o ABSOLUTE
    ..\\..\\..\\..\\..\\..\\..\\Middlewares\\Third_Party\\Lora\\Utilities\\low_power_manager.c 0x00000000   Number         0  low_power_manager.o ABSOLUTE
    ..\\..\\..\\..\\..\\..\\..\\Middlewares\\Third_Party\\Lora\\Utilities\\timeServer.c 0x00000000   Number         0  timeserver.o ABSOLUTE
    ..\\..\\..\\..\\..\\..\\..\\Middlewares\\Third_Party\\Lora\\Utilities\\utilities.c 0x00000000   Number         0  utilities.o ABSOLUTE
    ..\\..\\src\\debug.c                     0x00000000   Number         0  debug.o ABSOLUTE
    ..\\..\\src\\hw_gpio.c                   0x00000000   Number         0  hw_gpio.o ABSOLUTE
    ..\\..\\src\\hw_rtc.c                    0x00000000   Number         0  hw_rtc.o ABSOLUTE
    ..\\..\\src\\hw_spi.c                    0x00000000   Number         0  hw_spi.o ABSOLUTE
    ..\\..\\src\\main.c                      0x00000000   Number         0  main.o ABSOLUTE
    ..\\..\\src\\mlm32l0xx_hal_msp.c         0x00000000   Number         0  mlm32l0xx_hal_msp.o ABSOLUTE
    ..\\..\\src\\mlm32l0xx_hw.c              0x00000000   Number         0  mlm32l0xx_hw.o ABSOLUTE
    ..\\..\\src\\mlm32l0xx_it.c              0x00000000   Number         0  mlm32l0xx_it.o ABSOLUTE
    ..\\..\\src\\vcom.c                      0x00000000   Number         0  vcom.o ABSOLUTE
    cdcmple.s                                0x00000000   Number         0  cdcmple.o ABSOLUTE
    cdrcmple.s                               0x00000000   Number         0  cdrcmple.o ABSOLUTE
    dc.s                                     0x00000000   Number         0  dc.o ABSOLUTE
    handlers.s                               0x00000000   Number         0  handlers.o ABSOLUTE
    init.s                                   0x00000000   Number         0  init.o ABSOLUTE
    startup_stm32l072xx.s                    0x00000000   Number         0  startup_stm32l072xx.o ABSOLUTE
    RESET                                    0x08000000   Section      192  startup_stm32l072xx.o(RESET)
    .ARM.Collect$$$$00000000                 0x080000c0   Section        0  entry.o(.ARM.Collect$$$$00000000)
    .ARM.Collect$$$$00000001                 0x080000c0   Section        4  entry2.o(.ARM.Collect$$$$00000001)
    .ARM.Collect$$$$00000004                 0x080000c4   Section        4  entry5.o(.ARM.Collect$$$$00000004)
    .ARM.Collect$$$$00000008                 0x080000c8   Section        0  entry7b.o(.ARM.Collect$$$$00000008)
    .ARM.Collect$$$$0000000A                 0x080000c8   Section        0  entry8b.o(.ARM.Collect$$$$0000000A)
    .ARM.Collect$$$$0000000B                 0x080000c8   Section        8  entry9a.o(.ARM.Collect$$$$0000000B)
    .ARM.Collect$$$$0000000D                 0x080000d0   Section        0  entry10a.o(.ARM.Collect$$$$0000000D)
    .ARM.Collect$$$$0000000F                 0x080000d0   Section        0  entry11a.o(.ARM.Collect$$$$0000000F)
    .ARM.Collect$$$$00002712                 0x080000d0   Section        4  entry2.o(.ARM.Collect$$$$00002712)
    __lit__00000000                          0x080000d0   Data           4  entry2.o(.ARM.Collect$$$$00002712)
    .text                                    0x080000d4   Section       28  startup_stm32l072xx.o(.text)
    .text                                    0x080000f0   Section        0  uidiv.o(.text)
    .text                                    0x0800011c   Section        0  idiv.o(.text)
    .text                                    0x08000144   Section        0  uldiv.o(.text)
    .text                                    0x080001a4   Section        0  memcpya.o(.text)
    .text                                    0x080001c8   Section        0  memseta.o(.text)
    .text                                    0x080001ec   Section        0  strncmp.o(.text)
    .text                                    0x0800020c   Section        0  dadd.o(.text)
    .text                                    0x08000370   Section        0  dmul.o(.text)
    .text                                    0x08000440   Section        0  ddiv.o(.text)
    .text                                    0x08000530   Section        0  dflti.o(.text)
    .text                                    0x08000558   Section        0  dfltui.o(.text)
    .text                                    0x08000574   Section        0  dfixui.o(.text)
    .text                                    0x080005b0   Section       40  cdrcmple.o(.text)
    .text                                    0x080005d8   Section        0  llshl.o(.text)
    .text                                    0x080005f8   Section        0  llushr.o(.text)
    .text                                    0x0800061a   Section        0  llsshr.o(.text)
    .text                                    0x08000640   Section        0  depilogue.o(.text)
    .text                                    0x08000640   Section        0  iusefp.o(.text)
    .text                                    0x08000700   Section        0  drnd.o(.text)
    .text                                    0x0800077c   Section        0  dfixul.o(.text)
    .text                                    0x080007bc   Section       40  cdcmple.o(.text)
    .text                                    0x080007e4   Section       36  init.o(.text)
    i.BSP_LED_Init                           0x08000808   Section        0  b-l072z-lrwan1.o(i.BSP_LED_Init)
    i.BSP_LED_On                             0x080008d0   Section        0  b-l072z-lrwan1.o(i.BSP_LED_On)
    i.BSP_LED_Toggle                         0x080008f0   Section        0  b-l072z-lrwan1.o(i.BSP_LED_Toggle)
    i.DBG_Init                               0x08000910   Section        0  debug.o(i.DBG_Init)
    i.DelayMs                                0x0800095c   Section        0  delay.o(i.DelayMs)
    i.EXTI0_1_IRQHandler                     0x08000968   Section        0  mlm32l0xx_it.o(i.EXTI0_1_IRQHandler)
    i.EXTI2_3_IRQHandler                     0x08000978   Section        0  mlm32l0xx_it.o(i.EXTI2_3_IRQHandler)
    i.EXTI4_15_IRQHandler                    0x08000988   Section        0  mlm32l0xx_it.o(i.EXTI4_15_IRQHandler)
    i.EnterStandbyMode_RTC_config            0x080009e4   Section        0  main.o(i.EnterStandbyMode_RTC_config)
    i.Error_Handler                          0x08000a28   Section        0  debug.o(i.Error_Handler)
    i.GetFskBandwidthRegValue                0x08000a2c   Section        0  sx1276.o(i.GetFskBandwidthRegValue)
    GetFskBandwidthRegValue                  0x08000a2d   Thumb Code    46  sx1276.o(i.GetFskBandwidthRegValue)
    i.HAL_ADC_Init                           0x08000a60   Section        0  stm32l0xx_hal_adc.o(i.HAL_ADC_Init)
    i.HAL_ADC_MspInit                        0x08000c94   Section        0  stm32l0xx_hal_adc.o(i.HAL_ADC_MspInit)
    i.HAL_DBGMCU_DisableDBGSleepMode         0x08000c98   Section        0  stm32l0xx_hal.o(i.HAL_DBGMCU_DisableDBGSleepMode)
    i.HAL_DBGMCU_DisableDBGStandbyMode       0x08000cac   Section        0  stm32l0xx_hal.o(i.HAL_DBGMCU_DisableDBGStandbyMode)
    i.HAL_DBGMCU_DisableDBGStopMode          0x08000cc0   Section        0  stm32l0xx_hal.o(i.HAL_DBGMCU_DisableDBGStopMode)
    i.HAL_GPIO_EXTI_Callback                 0x08000cd4   Section        0  mlm32l0xx_hal_msp.o(i.HAL_GPIO_EXTI_Callback)
    i.HAL_GPIO_EXTI_IRQHandler               0x08000ce0   Section        0  stm32l0xx_hal_gpio.o(i.HAL_GPIO_EXTI_IRQHandler)
    i.HAL_GPIO_Init                          0x08000d00   Section        0  stm32l0xx_hal_gpio.o(i.HAL_GPIO_Init)
    i.HAL_GPIO_TogglePin                     0x08000ef8   Section        0  stm32l0xx_hal_gpio.o(i.HAL_GPIO_TogglePin)
    i.HAL_GPIO_WritePin                      0x08000f00   Section        0  stm32l0xx_hal_gpio.o(i.HAL_GPIO_WritePin)
    i.HAL_GetTick                            0x08000f0c   Section        0  stm32l0xx_hal.o(i.HAL_GetTick)
    i.HAL_IncTick                            0x08000f18   Section        0  stm32l0xx_hal.o(i.HAL_IncTick)
    i.HAL_Init                               0x08000f28   Section        0  stm32l0xx_hal.o(i.HAL_Init)
    i.HAL_InitTick                           0x08000f48   Section        0  mlm32l0xx_hal_msp.o(i.HAL_InitTick)
    i.HAL_MspInit                            0x08000f50   Section        0  mlm32l0xx_hal_msp.o(i.HAL_MspInit)
    i.HAL_NVIC_ClearPendingIRQ               0x08000f74   Section        0  stm32l0xx_hal_cortex.o(i.HAL_NVIC_ClearPendingIRQ)
    i.HAL_NVIC_EnableIRQ                     0x08000f8c   Section        0  stm32l0xx_hal_cortex.o(i.HAL_NVIC_EnableIRQ)
    i.HAL_NVIC_SetPendingIRQ                 0x08000fa4   Section        0  stm32l0xx_hal_cortex.o(i.HAL_NVIC_SetPendingIRQ)
    i.HAL_NVIC_SetPriority                   0x08000fbc   Section        0  stm32l0xx_hal_cortex.o(i.HAL_NVIC_SetPriority)
    i.HAL_PWREx_EnableFastWakeUp             0x08000fd0   Section        0  stm32l0xx_hal_pwr_ex.o(i.HAL_PWREx_EnableFastWakeUp)
    i.HAL_PWREx_EnableUltraLowPower          0x08000fe4   Section        0  stm32l0xx_hal_pwr_ex.o(i.HAL_PWREx_EnableUltraLowPower)
    i.HAL_PWR_DisablePVD                     0x08000ff8   Section        0  stm32l0xx_hal_pwr.o(i.HAL_PWR_DisablePVD)
    i.HAL_PWR_EnterSTANDBYMode               0x0800100c   Section        0  stm32l0xx_hal_pwr.o(i.HAL_PWR_EnterSTANDBYMode)
    i.HAL_RCCEx_GetPeriphCLKFreq             0x08001034   Section        0  stm32l0xx_hal_rcc_ex.o(i.HAL_RCCEx_GetPeriphCLKFreq)
    i.HAL_RCCEx_PeriphCLKConfig              0x080013b4   Section        0  stm32l0xx_hal_rcc_ex.o(i.HAL_RCCEx_PeriphCLKConfig)
    i.HAL_RCC_ClockConfig                    0x08001624   Section        0  stm32l0xx_hal_rcc.o(i.HAL_RCC_ClockConfig)
    i.HAL_RCC_GetHCLKFreq                    0x0800181c   Section        0  stm32l0xx_hal_rcc.o(i.HAL_RCC_GetHCLKFreq)
    i.HAL_RCC_GetPCLK1Freq                   0x08001828   Section        0  stm32l0xx_hal_rcc.o(i.HAL_RCC_GetPCLK1Freq)
    i.HAL_RCC_GetPCLK2Freq                   0x0800184c   Section        0  stm32l0xx_hal_rcc.o(i.HAL_RCC_GetPCLK2Freq)
    i.HAL_RCC_GetSysClockFreq                0x08001870   Section        0  stm32l0xx_hal_rcc.o(i.HAL_RCC_GetSysClockFreq)
    i.HAL_RCC_OscConfig                      0x08001954   Section        0  stm32l0xx_hal_rcc.o(i.HAL_RCC_OscConfig)
    i.HAL_RTCEx_EnableBypassShadow           0x08002034   Section        0  stm32l0xx_hal_rtc_ex.o(i.HAL_RTCEx_EnableBypassShadow)
    i.HAL_RTC_AlarmAEventCallback            0x0800208c   Section        0  mlm32l0xx_hal_msp.o(i.HAL_RTC_AlarmAEventCallback)
    i.HAL_RTC_DeactivateAlarm                0x08002096   Section        0  stm32l0xx_hal_rtc.o(i.HAL_RTC_DeactivateAlarm)
    i.HAL_RTC_GetDate                        0x080021a8   Section        0  stm32l0xx_hal_rtc.o(i.HAL_RTC_GetDate)
    i.HAL_RTC_GetTime                        0x08002204   Section        0  stm32l0xx_hal_rtc.o(i.HAL_RTC_GetTime)
    i.HAL_RTC_Init                           0x08002270   Section        0  stm32l0xx_hal_rtc.o(i.HAL_RTC_Init)
    i.HAL_RTC_MspInit                        0x08002338   Section        0  mlm32l0xx_hal_msp.o(i.HAL_RTC_MspInit)
    i.HAL_RTC_SetAlarm_IT                    0x08002398   Section        0  stm32l0xx_hal_rtc.o(i.HAL_RTC_SetAlarm_IT)
    i.HAL_RTC_SetDate                        0x080025f4   Section        0  stm32l0xx_hal_rtc.o(i.HAL_RTC_SetDate)
    i.HAL_RTC_SetTime                        0x08002724   Section        0  stm32l0xx_hal_rtc.o(i.HAL_RTC_SetTime)
    i.HAL_RTC_WaitForSynchro                 0x08002878   Section        0  stm32l0xx_hal_rtc.o(i.HAL_RTC_WaitForSynchro)
    i.HAL_SPI_Init                           0x080028b4   Section        0  stm32l0xx_hal_spi.o(i.HAL_SPI_Init)
    i.HAL_SPI_MspInit                        0x08002942   Section        0  stm32l0xx_hal_spi.o(i.HAL_SPI_MspInit)
    i.HAL_SPI_TransmitReceive                0x08002944   Section        0  stm32l0xx_hal_spi.o(i.HAL_SPI_TransmitReceive)
    i.HAL_UART_Init                          0x08002cc2   Section        0  stm32l0xx_hal_uart.o(i.HAL_UART_Init)
    i.HAL_UART_MspInit                       0x08002d44   Section        0  vcom.o(i.HAL_UART_MspInit)
    i.HAL_UART_Transmit                      0x08002d60   Section        0  stm32l0xx_hal_uart.o(i.HAL_UART_Transmit)
    i.HW_AdcInit                             0x08002e50   Section        0  mlm32l0xx_hw.o(i.HW_AdcInit)
    i.HW_GPIO_GetBitPos                      0x08002ee4   Section        0  hw_gpio.o(i.HW_GPIO_GetBitPos)
    HW_GPIO_GetBitPos                        0x08002ee5   Thumb Code    56  hw_gpio.o(i.HW_GPIO_GetBitPos)
    i.HW_GPIO_Init                           0x08002f28   Section        0  hw_gpio.o(i.HW_GPIO_Init)
    i.HW_GPIO_IrqHandler                     0x08003014   Section        0  hw_gpio.o(i.HW_GPIO_IrqHandler)
    i.HW_GPIO_SetIrq                         0x08003038   Section        0  hw_gpio.o(i.HW_GPIO_SetIrq)
    i.HW_GPIO_Write                          0x0800307c   Section        0  hw_gpio.o(i.HW_GPIO_Write)
    i.HW_Init                                0x08003090   Section        0  mlm32l0xx_hw.o(i.HW_Init)
    i.HW_RTC_DelayMs                         0x080030d8   Section        0  hw_rtc.o(i.HW_RTC_DelayMs)
    i.HW_RTC_GetCalendarValue                0x08003100   Section        0  hw_rtc.o(i.HW_RTC_GetCalendarValue)
    HW_RTC_GetCalendarValue                  0x08003101   Thumb Code   162  hw_rtc.o(i.HW_RTC_GetCalendarValue)
    i.HW_RTC_GetMinimumTimeout               0x080031bc   Section        0  hw_rtc.o(i.HW_RTC_GetMinimumTimeout)
    i.HW_RTC_GetTimerContext                 0x080031c0   Section        0  hw_rtc.o(i.HW_RTC_GetTimerContext)
    i.HW_RTC_GetTimerElapsedTime             0x080031cc   Section        0  hw_rtc.o(i.HW_RTC_GetTimerElapsedTime)
    i.HW_RTC_GetTimerValue                   0x080031e8   Section        0  hw_rtc.o(i.HW_RTC_GetTimerValue)
    i.HW_RTC_Init                            0x080031fc   Section        0  hw_rtc.o(i.HW_RTC_Init)
    i.HW_RTC_IrqHandler                      0x08003220   Section        0  hw_rtc.o(i.HW_RTC_IrqHandler)
    i.HW_RTC_SetAlarm                        0x08003278   Section        0  hw_rtc.o(i.HW_RTC_SetAlarm)
    i.HW_RTC_SetAlarmConfig                  0x080032bc   Section        0  hw_rtc.o(i.HW_RTC_SetAlarmConfig)
    HW_RTC_SetAlarmConfig                    0x080032bd   Thumb Code    14  hw_rtc.o(i.HW_RTC_SetAlarmConfig)
    i.HW_RTC_SetConfig                       0x080032d0   Section        0  hw_rtc.o(i.HW_RTC_SetConfig)
    HW_RTC_SetConfig                         0x080032d1   Thumb Code   100  hw_rtc.o(i.HW_RTC_SetConfig)
    i.HW_RTC_SetTimerContext                 0x08003340   Section        0  hw_rtc.o(i.HW_RTC_SetTimerContext)
    i.HW_RTC_StartWakeUpAlarm                0x0800335c   Section        0  hw_rtc.o(i.HW_RTC_StartWakeUpAlarm)
    HW_RTC_StartWakeUpAlarm                  0x0800335d   Thumb Code   370  hw_rtc.o(i.HW_RTC_StartWakeUpAlarm)
    i.HW_RTC_StopAlarm                       0x080034ec   Section        0  hw_rtc.o(i.HW_RTC_StopAlarm)
    i.HW_RTC_Tick2ms                         0x08003518   Section        0  hw_rtc.o(i.HW_RTC_Tick2ms)
    i.HW_RTC_ms2Tick                         0x08003530   Section        0  hw_rtc.o(i.HW_RTC_ms2Tick)
    i.HW_SPI_InOut                           0x08003548   Section        0  hw_spi.o(i.HW_SPI_InOut)
    i.HW_SPI_Init                            0x08003568   Section        0  hw_spi.o(i.HW_SPI_Init)
    i.HardFault_Handler                      0x0800362c   Section        0  mlm32l0xx_it.o(i.HardFault_Handler)
    i.LPM_GetMode                            0x08003634   Section        0  low_power_manager.o(i.LPM_GetMode)
    i.LPM_SetStopMode                        0x0800366c   Section        0  low_power_manager.o(i.LPM_SetStopMode)
    i.MSP_GetIRQn                            0x080036ac   Section        0  mlm32l0xx_hal_msp.o(i.MSP_GetIRQn)
    i.NMI_Handler                            0x08003748   Section        0  mlm32l0xx_it.o(i.NMI_Handler)
    i.NVIC_SetPriority                       0x0800374c   Section        0  stm32l0xx_hal_cortex.o(i.NVIC_SetPriority)
    NVIC_SetPriority                         0x0800374d   Thumb Code   110  stm32l0xx_hal_cortex.o(i.NVIC_SetPriority)
    i.OnRxDone                               0x080037c4   Section        0  main.o(i.OnRxDone)
    i.OnRxError                              0x08003840   Section        0  main.o(i.OnRxError)
    i.OnRxTimeout                            0x0800386c   Section        0  main.o(i.OnRxTimeout)
    i.OnTxDone                               0x08003884   Section        0  main.o(i.OnTxDone)
    i.OnTxTimeout                            0x080038c0   Section        0  main.o(i.OnTxTimeout)
    i.OnledEvent                             0x080038f4   Section        0  main.o(i.OnledEvent)
    OnledEvent                               0x080038f5   Thumb Code    16  main.o(i.OnledEvent)
    i.PendSV_Handler                         0x08003908   Section        0  mlm32l0xx_it.o(i.PendSV_Handler)
    i.RCC_SetFlashLatencyFromMSIRange        0x0800390c   Section        0  stm32l0xx_hal_rcc.o(i.RCC_SetFlashLatencyFromMSIRange)
    RCC_SetFlashLatencyFromMSIRange          0x0800390d   Thumb Code   138  stm32l0xx_hal_rcc.o(i.RCC_SetFlashLatencyFromMSIRange)
    i.RTC_AlarmConfig                        0x080039a4   Section        0  main.o(i.RTC_AlarmConfig)
    RTC_AlarmConfig                          0x080039a5   Thumb Code   186  main.o(i.RTC_AlarmConfig)
    i.RTC_Bcd2ToByte                         0x08003a80   Section        0  stm32l0xx_hal_rtc.o(i.RTC_Bcd2ToByte)
    i.RTC_ByteToBcd2                         0x08003a9a   Section        0  stm32l0xx_hal_rtc.o(i.RTC_ByteToBcd2)
    i.RTC_EnterInitMode                      0x08003ab4   Section        0  stm32l0xx_hal_rtc.o(i.RTC_EnterInitMode)
    i.RTC_IRQHandler                         0x08003af6   Section        0  mlm32l0xx_it.o(i.RTC_IRQHandler)
    i.RxChainCalibration                     0x08003b00   Section        0  sx1276.o(i.RxChainCalibration)
    i.SPI_WaitOnFlagUntilTimeout             0x08003bb0   Section        0  stm32l0xx_hal_spi.o(i.SPI_WaitOnFlagUntilTimeout)
    SPI_WaitOnFlagUntilTimeout               0x08003bb1   Thumb Code   280  stm32l0xx_hal_spi.o(i.SPI_WaitOnFlagUntilTimeout)
    i.SVC_Handler                            0x08003cc8   Section        0  mlm32l0xx_it.o(i.SVC_Handler)
    i.SX1276AntSwDeInit                      0x08003ccc   Section        0  mlm32l07x01.o(i.SX1276AntSwDeInit)
    SX1276AntSwDeInit                        0x08003ccd   Thumb Code    92  mlm32l07x01.o(i.SX1276AntSwDeInit)
    i.SX1276AntSwInit                        0x08003d2c   Section        0  mlm32l07x01.o(i.SX1276AntSwInit)
    SX1276AntSwInit                          0x08003d2d   Thumb Code    92  mlm32l07x01.o(i.SX1276AntSwInit)
    i.SX1276BoardInit                        0x08003d8c   Section        0  sx1276.o(i.SX1276BoardInit)
    i.SX1276CheckRfFrequency                 0x08003d98   Section        0  mlm32l07x01.o(i.SX1276CheckRfFrequency)
    i.SX1276GetPaSelect                      0x08003d9e   Section        0  mlm32l07x01.o(i.SX1276GetPaSelect)
    i.SX1276GetRadioWakeUpTime               0x08003dac   Section        0  sx1276.o(i.SX1276GetRadioWakeUpTime)
    i.SX1276GetStatus                        0x08003dc0   Section        0  sx1276.o(i.SX1276GetStatus)
    i.SX1276GetTimeOnAir                     0x08003dcc   Section        0  sx1276.o(i.SX1276GetTimeOnAir)
    i.SX1276GetWakeTime                      0x0800406c   Section        0  mlm32l07x01.o(i.SX1276GetWakeTime)
    i.SX1276Init                             0x08004070   Section        0  sx1276.o(i.SX1276Init)
    i.SX1276IoDeInit                         0x0800411c   Section        0  mlm32l07x01.o(i.SX1276IoDeInit)
    i.SX1276IoInit                           0x0800416c   Section        0  mlm32l07x01.o(i.SX1276IoInit)
    i.SX1276IoIrqInit                        0x080041e0   Section        0  mlm32l07x01.o(i.SX1276IoIrqInit)
    i.SX1276IsChannelFree                    0x08004220   Section        0  sx1276.o(i.SX1276IsChannelFree)
    i.SX1276OnDio0Irq                        0x0800427c   Section        0  sx1276.o(i.SX1276OnDio0Irq)
    i.SX1276OnDio1Irq                        0x08004628   Section        0  sx1276.o(i.SX1276OnDio1Irq)
    i.SX1276OnDio2Irq                        0x080047b8   Section        0  sx1276.o(i.SX1276OnDio2Irq)
    i.SX1276OnDio3Irq                        0x080048f8   Section        0  sx1276.o(i.SX1276OnDio3Irq)
    i.SX1276OnDio4Irq                        0x08004974   Section        0  sx1276.o(i.SX1276OnDio4Irq)
    i.SX1276OnTimeoutIrq                     0x080049a4   Section        0  sx1276.o(i.SX1276OnTimeoutIrq)
    i.SX1276Random                           0x08004ab4   Section        0  sx1276.o(i.SX1276Random)
    i.SX1276Read                             0x08004af4   Section        0  sx1276.o(i.SX1276Read)
    i.SX1276ReadBuffer                       0x08004b08   Section        0  sx1276.o(i.SX1276ReadBuffer)
    i.SX1276ReadFifo                         0x08004b48   Section        0  sx1276.o(i.SX1276ReadFifo)
    i.SX1276ReadRssi                         0x08004b5c   Section        0  sx1276.o(i.SX1276ReadRssi)
    i.SX1276Reset                            0x08004bb0   Section        0  sx1276.o(i.SX1276Reset)
    i.SX1276Send                             0x08004c00   Section        0  sx1276.o(i.SX1276Send)
    i.SX1276SetAntSw                         0x08004d30   Section        0  mlm32l07x01.o(i.SX1276SetAntSw)
    i.SX1276SetAntSwLowPower                 0x08004d9c   Section        0  mlm32l07x01.o(i.SX1276SetAntSwLowPower)
    i.SX1276SetChannel                       0x08004db0   Section        0  sx1276.o(i.SX1276SetChannel)
    i.SX1276SetMaxPayloadLength              0x08004e08   Section        0  sx1276.o(i.SX1276SetMaxPayloadLength)
    i.SX1276SetModem                         0x08004e44   Section        0  sx1276.o(i.SX1276SetModem)
    i.SX1276SetOpMode                        0x08004edc   Section        0  sx1276.o(i.SX1276SetOpMode)
    i.SX1276SetPublicNetwork                 0x08004f4c   Section        0  sx1276.o(i.SX1276SetPublicNetwork)
    i.SX1276SetRfTxPower                     0x08004f78   Section        0  mlm32l07x01.o(i.SX1276SetRfTxPower)
    i.SX1276SetRx                            0x0800503c   Section        0  sx1276.o(i.SX1276SetRx)
    i.SX1276SetRxConfig                      0x080052cc   Section        0  sx1276.o(i.SX1276SetRxConfig)
    i.SX1276SetSleep                         0x080055e8   Section        0  sx1276.o(i.SX1276SetSleep)
    i.SX1276SetStby                          0x08005610   Section        0  sx1276.o(i.SX1276SetStby)
    i.SX1276SetTx                            0x08005638   Section        0  sx1276.o(i.SX1276SetTx)
    i.SX1276SetTxConfig                      0x08005704   Section        0  sx1276.o(i.SX1276SetTxConfig)
    i.SX1276SetTxContinuousWave              0x08005974   Section        0  sx1276.o(i.SX1276SetTxContinuousWave)
    i.SX1276SetXO                            0x080059fc   Section        0  mlm32l07x01.o(i.SX1276SetXO)
    i.SX1276StartCad                         0x08005a28   Section        0  sx1276.o(i.SX1276StartCad)
    i.SX1276Write                            0x08005a70   Section        0  sx1276.o(i.SX1276Write)
    i.SX1276WriteBuffer                      0x08005a80   Section        0  sx1276.o(i.SX1276WriteBuffer)
    i.SX1276WriteFifo                        0x08005ac0   Section        0  sx1276.o(i.SX1276WriteFifo)
    i.SpiFrequency                           0x08005ad4   Section        0  hw_spi.o(i.SpiFrequency)
    SpiFrequency                             0x08005ad5   Thumb Code    72  hw_spi.o(i.SpiFrequency)
    i.SysTick_Handler                        0x08005b20   Section        0  mlm32l0xx_it.o(i.SysTick_Handler)
    i.SystemClock_Config                     0x08005b28   Section        0  mlm32l0xx_hw.o(i.SystemClock_Config)
    i.SystemInit                             0x08005bc8   Section        0  system_stm32l0xx.o(i.SystemInit)
    i.TimerExists                            0x08005c30   Section        0  timeserver.o(i.TimerExists)
    TimerExists                              0x08005c31   Thumb Code    26  timeserver.o(i.TimerExists)
    i.TimerGetCurrentTime                    0x08005c50   Section        0  timeserver.o(i.TimerGetCurrentTime)
    i.TimerGetElapsedTime                    0x08005c60   Section        0  timeserver.o(i.TimerGetElapsedTime)
    i.TimerInit                              0x08005c7a   Section        0  timeserver.o(i.TimerInit)
    i.TimerInsertNewHeadTimer                0x08005c88   Section        0  timeserver.o(i.TimerInsertNewHeadTimer)
    TimerInsertNewHeadTimer                  0x08005c89   Thumb Code    30  timeserver.o(i.TimerInsertNewHeadTimer)
    i.TimerInsertTimer                       0x08005cac   Section        0  timeserver.o(i.TimerInsertTimer)
    TimerInsertTimer                         0x08005cad   Thumb Code    46  timeserver.o(i.TimerInsertTimer)
    i.TimerIrqHandler                        0x08005ce0   Section        0  timeserver.o(i.TimerIrqHandler)
    i.TimerSetTimeout                        0x08005d98   Section        0  timeserver.o(i.TimerSetTimeout)
    TimerSetTimeout                          0x08005d99   Thumb Code    42  timeserver.o(i.TimerSetTimeout)
    i.TimerSetValue                          0x08005dc2   Section        0  timeserver.o(i.TimerSetValue)
    i.TimerStart                             0x08005dec   Section        0  timeserver.o(i.TimerStart)
    i.TimerStop                              0x08005e64   Section        0  timeserver.o(i.TimerStop)
    i.UART_AdvFeatureConfig                  0x08005f1c   Section        0  stm32l0xx_hal_uart.o(i.UART_AdvFeatureConfig)
    i.UART_CheckIdleState                    0x0800600c   Section        0  stm32l0xx_hal_uart.o(i.UART_CheckIdleState)
    i.UART_SetConfig                         0x08006080   Section        0  stm32l0xx_hal_uart.o(i.UART_SetConfig)
    i.UART_WaitOnFlagUntilTimeout            0x08006470   Section        0  stm32l0xx_hal_uart.o(i.UART_WaitOnFlagUntilTimeout)
    i.USART2_IRQHandler                      0x080064e0   Section        0  mlm32l0xx_it.o(i.USART2_IRQHandler)
    i.__0vsprintf                            0x080064e8   Section        0  printfa.o(i.__0vsprintf)
    i.__ARM_clz                              0x0800650c   Section        0  depilogue.o(i.__ARM_clz)
    i.__ARM_common_ll_muluu                  0x0800653a   Section        0  stm32l0xx_hal_uart.o(i.__ARM_common_ll_muluu)
    i.__ARM_common_switch8                   0x0800656a   Section        0  sx1276.o(i.__ARM_common_switch8)
    i.__scatterload_copy                     0x08006586   Section       14  handlers.o(i.__scatterload_copy)
    i.__scatterload_null                     0x08006594   Section        2  handlers.o(i.__scatterload_null)
    i.__scatterload_zeroinit                 0x08006596   Section       14  handlers.o(i.__scatterload_zeroinit)
    i.__set_PRIMASK                          0x080065a4   Section        0  timeserver.o(i.__set_PRIMASK)
    __set_PRIMASK                            0x080065a5   Thumb Code     6  timeserver.o(i.__set_PRIMASK)
    i._fp_digits                             0x080065ac   Section        0  printfa.o(i._fp_digits)
    _fp_digits                               0x080065ad   Thumb Code   344  printfa.o(i._fp_digits)
    i._printf_core                           0x08006720   Section        0  printfa.o(i._printf_core)
    _printf_core                             0x08006721   Thumb Code  1754  printfa.o(i._printf_core)
    i._printf_post_padding                   0x08006e0c   Section        0  printfa.o(i._printf_post_padding)
    _printf_post_padding                     0x08006e0d   Thumb Code    32  printfa.o(i._printf_post_padding)
    i._printf_pre_padding                    0x08006e2c   Section        0  printfa.o(i._printf_pre_padding)
    _printf_pre_padding                      0x08006e2d   Thumb Code    44  printfa.o(i._printf_pre_padding)
    i._sputc                                 0x08006e58   Section        0  printfa.o(i._sputc)
    _sputc                                   0x08006e59   Thumb Code    10  printfa.o(i._sputc)
    i.ceil                                   0x08006e64   Section        0  ceil.o(i.ceil)
    i.floor                                  0x08006f2c   Section        0  floor.o(i.floor)
    i.main                                   0x08006ff4   Section        0  main.o(i.main)
    i.memcpy1                                0x08007418   Section        0  utilities.o(i.memcpy1)
    i.round                                  0x08007430   Section        0  round.o(i.round)
    i.vcom_Init                              0x080074cc   Section        0  vcom.o(i.vcom_Init)
    i.vcom_IoInit                            0x08007510   Section        0  vcom.o(i.vcom_IoInit)
    i.vcom_Print                             0x0800758c   Section        0  vcom.o(i.vcom_Print)
    i.vcom_Send                              0x08007608   Section        0  vcom.o(i.vcom_Send)
    .constdata                               0x080076a4   Section      224  sx1276.o(.constdata)
    .constdata                               0x08007784   Section      104  mlm32l07x01.o(.constdata)
    .constdata                               0x080077ec   Section       11  b-l072z-lrwan1.o(.constdata)
    .constdata                               0x080077f7   Section       33  system_stm32l0xx.o(.constdata)
    .constdata                               0x08007818   Section       24  hw_rtc.o(.constdata)
    DaysInMonth                              0x08007818   Data          12  hw_rtc.o(.constdata)
    DaysInMonthLeapYear                      0x08007824   Data          12  hw_rtc.o(.constdata)
    .data                                    0x20000000   Section       32  sx1276.o(.data)
    RadioEvents                              0x20000000   Data           4  sx1276.o(.data)
    LoRaBoardCallbacks                       0x20000004   Data           4  sx1276.o(.data)
    .data                                    0x20000020   Section       24  mlm32l07x01.o(.data)
    BoardCallbacks                           0x20000020   Data          24  mlm32l07x01.o(.data)
    .data                                    0x20000038   Section       20  b-l072z-lrwan1.o(.data)
    .data                                    0x2000004c   Section        4  system_stm32l0xx.o(.data)
    .data                                    0x20000050   Section        4  stm32l0xx_hal.o(.data)
    .data                                    0x20000054   Section        4  hw_rtc.o(.data)
    HW_RTC_Initalized                        0x20000054   Data           1  hw_rtc.o(.data)
    McuWakeUpTimeInitialized                 0x20000055   Data           1  hw_rtc.o(.data)
    McuWakeUpTimeCal                         0x20000056   Data           2  hw_rtc.o(.data)
    .data                                    0x20000058   Section       14  main.o(.data)
    .data                                    0x20000066   Section        4  vcom.o(.data)
    ir                                       0x20000068   Data           2  vcom.o(.data)
    .data                                    0x2000006a   Section        2  mlm32l0xx_hw.o(.data)
    AdcInitialized                           0x2000006a   Data           1  mlm32l0xx_hw.o(.data)
    McuInitialized                           0x2000006b   Data           1  mlm32l0xx_hw.o(.data)
    .data                                    0x2000006c   Section        8  low_power_manager.o(.data)
    StopModeDisable                          0x2000006c   Data           4  low_power_manager.o(.data)
    OffModeDisable                           0x20000070   Data           4  low_power_manager.o(.data)
    .data                                    0x20000074   Section        4  timeserver.o(.data)
    TimerListHead                            0x20000074   Data           4  timeserver.o(.data)
    .bss                                     0x20000078   Section      420  sx1276.o(.bss)
    RxTxBuffer                               0x20000078   Data         256  sx1276.o(.bss)
    .bss                                     0x2000021c   Section       64  hw_gpio.o(.bss)
    GpioIrq                                  0x2000021c   Data          64  hw_gpio.o(.bss)
    .bss                                     0x2000025c   Section      104  hw_rtc.o(.bss)
    RtcHandle                                0x2000025c   Data          36  hw_rtc.o(.bss)
    RTC_AlarmStructure                       0x20000280   Data          40  hw_rtc.o(.bss)
    RtcTimerContext                          0x200002a8   Data          28  hw_rtc.o(.bss)
    .bss                                     0x200002c4   Section       88  hw_spi.o(.bss)
    hspi                                     0x200002c4   Data          88  hw_spi.o(.bss)
    .bss                                     0x2000031c   Section      256  main.o(.bss)
    timerLed                                 0x200003ec   Data          20  main.o(.bss)
    RadioEvents                              0x20000400   Data          28  main.o(.bss)
    .bss                                     0x2000041c   Section      368  vcom.o(.bss)
    buff                                     0x2000041c   Data         256  vcom.o(.bss)
    UartHandle                               0x2000051c   Data         112  vcom.o(.bss)
    .bss                                     0x2000058c   Section       96  mlm32l0xx_hw.o(.bss)
    hadc                                     0x2000058c   Data          96  mlm32l0xx_hw.o(.bss)
    .bss                                     0x200005ec   Section       36  low_power_manager.o(.bss)
    STACK                                    0x20000610   Section     1024  startup_stm32l072xx.o(STACK)

    Global Symbols

    Symbol Name                              Value     Ov Type        Size  Object(Section)

    BuildAttributes$$THM_ISAv3M$S$PE$A:L22$X:L11$S22$IEEE1$IW$USESV6$~STKCKD$USESV7$~SHL$OTIME$ROPI$IEEEJ$EBA8$MICROLIB$REQ8$PRES8$EABIv2 0x00000000   Number         0  anon$$obj.o ABSOLUTE
    __ARM_use_no_argv                        0x00000000   Number         0  main.o ABSOLUTE
    __cpp_initialize__aeabi_                  - Undefined Weak Reference
    __cxa_finalize                            - Undefined Weak Reference
    __decompress                              - Undefined Weak Reference
    _clock_init                               - Undefined Weak Reference
    _microlib_exit                            - Undefined Weak Reference
    __Vectors_Size                           0x000000c0   Number         0  startup_stm32l072xx.o ABSOLUTE
    __Vectors                                0x08000000   Data           4  startup_stm32l072xx.o(RESET)
    __Vectors_End                            0x080000c0   Data           0  startup_stm32l072xx.o(RESET)
    __main                                   0x080000c1   Thumb Code     0  entry.o(.ARM.Collect$$$$00000000)
    _main_stk                                0x080000c1   Thumb Code     0  entry2.o(.ARM.Collect$$$$00000001)
    _main_scatterload                        0x080000c5   Thumb Code     0  entry5.o(.ARM.Collect$$$$00000004)
    __main_after_scatterload                 0x080000c9   Thumb Code     0  entry5.o(.ARM.Collect$$$$00000004)
    _main_clock                              0x080000c9   Thumb Code     0  entry7b.o(.ARM.Collect$$$$00000008)
    _main_cpp_init                           0x080000c9   Thumb Code     0  entry8b.o(.ARM.Collect$$$$0000000A)
    _main_init                               0x080000c9   Thumb Code     0  entry9a.o(.ARM.Collect$$$$0000000B)
    __rt_final_cpp                           0x080000d1   Thumb Code     0  entry10a.o(.ARM.Collect$$$$0000000D)
    __rt_final_exit                          0x080000d1   Thumb Code     0  entry11a.o(.ARM.Collect$$$$0000000F)
    Reset_Handler                            0x080000d5   Thumb Code     8  startup_stm32l072xx.o(.text)
    ADC1_COMP_IRQHandler                     0x080000e7   Thumb Code     0  startup_stm32l072xx.o(.text)
    DMA1_Channel1_IRQHandler                 0x080000e7   Thumb Code     0  startup_stm32l072xx.o(.text)
    DMA1_Channel2_3_IRQHandler               0x080000e7   Thumb Code     0  startup_stm32l072xx.o(.text)
    DMA1_Channel4_5_6_7_IRQHandler           0x080000e7   Thumb Code     0  startup_stm32l072xx.o(.text)
    FLASH_IRQHandler                         0x080000e7   Thumb Code     0  startup_stm32l072xx.o(.text)
    I2C1_IRQHandler                          0x080000e7   Thumb Code     0  startup_stm32l072xx.o(.text)
    I2C2_IRQHandler                          0x080000e7   Thumb Code     0  startup_stm32l072xx.o(.text)
    I2C3_IRQHandler                          0x080000e7   Thumb Code     0  startup_stm32l072xx.o(.text)
    LPTIM1_IRQHandler                        0x080000e7   Thumb Code     0  startup_stm32l072xx.o(.text)
    PVD_IRQHandler                           0x080000e7   Thumb Code     0  startup_stm32l072xx.o(.text)
    RCC_CRS_IRQHandler                       0x080000e7   Thumb Code     0  startup_stm32l072xx.o(.text)
    RNG_LPUART1_IRQHandler                   0x080000e7   Thumb Code     0  startup_stm32l072xx.o(.text)
    SPI1_IRQHandler                          0x080000e7   Thumb Code     0  startup_stm32l072xx.o(.text)
    SPI2_IRQHandler                          0x080000e7   Thumb Code     0  startup_stm32l072xx.o(.text)
    TIM21_IRQHandler                         0x080000e7   Thumb Code     0  startup_stm32l072xx.o(.text)
    TIM22_IRQHandler                         0x080000e7   Thumb Code     0  startup_stm32l072xx.o(.text)
    TIM2_IRQHandler                          0x080000e7   Thumb Code     0  startup_stm32l072xx.o(.text)
    TIM3_IRQHandler                          0x080000e7   Thumb Code     0  startup_stm32l072xx.o(.text)
    TIM6_DAC_IRQHandler                      0x080000e7   Thumb Code     0  startup_stm32l072xx.o(.text)
    TIM7_IRQHandler                          0x080000e7   Thumb Code     0  startup_stm32l072xx.o(.text)
    TSC_IRQHandler                           0x080000e7   Thumb Code     0  startup_stm32l072xx.o(.text)
    USART1_IRQHandler                        0x080000e7   Thumb Code     0  startup_stm32l072xx.o(.text)
    USART4_5_IRQHandler                      0x080000e7   Thumb Code     0  startup_stm32l072xx.o(.text)
    USB_IRQHandler                           0x080000e7   Thumb Code     0  startup_stm32l072xx.o(.text)
    WWDG_IRQHandler                          0x080000e7   Thumb Code     0  startup_stm32l072xx.o(.text)
    __aeabi_uidiv                            0x080000f1   Thumb Code     0  uidiv.o(.text)
    __aeabi_uidivmod                         0x080000f1   Thumb Code    44  uidiv.o(.text)
    __aeabi_idiv                             0x0800011d   Thumb Code     0  idiv.o(.text)
    __aeabi_idivmod                          0x0800011d   Thumb Code    40  idiv.o(.text)
    __aeabi_uldivmod                         0x08000145   Thumb Code    96  uldiv.o(.text)
    __aeabi_memcpy                           0x080001a5   Thumb Code    36  memcpya.o(.text)
    __aeabi_memcpy4                          0x080001a5   Thumb Code     0  memcpya.o(.text)
    __aeabi_memcpy8                          0x080001a5   Thumb Code     0  memcpya.o(.text)
    __aeabi_memset                           0x080001c9   Thumb Code    14  memseta.o(.text)
    __aeabi_memset4                          0x080001c9   Thumb Code     0  memseta.o(.text)
    __aeabi_memset8                          0x080001c9   Thumb Code     0  memseta.o(.text)
    __aeabi_memclr                           0x080001d7   Thumb Code     4  memseta.o(.text)
    __aeabi_memclr4                          0x080001d7   Thumb Code     0  memseta.o(.text)
    __aeabi_memclr8                          0x080001d7   Thumb Code     0  memseta.o(.text)
    _memset$wrapper                          0x080001db   Thumb Code    18  memseta.o(.text)
    strncmp                                  0x080001ed   Thumb Code    30  strncmp.o(.text)
    __aeabi_dadd                             0x0800020d   Thumb Code   328  dadd.o(.text)
    __aeabi_dsub                             0x08000355   Thumb Code    12  dadd.o(.text)
    __aeabi_drsub                            0x08000361   Thumb Code    12  dadd.o(.text)
    __aeabi_dmul                             0x08000371   Thumb Code   202  dmul.o(.text)
    __aeabi_ddiv                             0x08000441   Thumb Code   234  ddiv.o(.text)
    __aeabi_i2d                              0x08000531   Thumb Code    34  dflti.o(.text)
    __aeabi_ui2d                             0x08000559   Thumb Code    24  dfltui.o(.text)
    __aeabi_d2uiz                            0x08000575   Thumb Code    50  dfixui.o(.text)
    __aeabi_cdrcmple                         0x080005b1   Thumb Code    38  cdrcmple.o(.text)
    __aeabi_llsl                             0x080005d9   Thumb Code    32  llshl.o(.text)
    _ll_shift_l                              0x080005d9   Thumb Code     0  llshl.o(.text)
    __aeabi_llsr                             0x080005f9   Thumb Code    34  llushr.o(.text)
    _ll_ushift_r                             0x080005f9   Thumb Code     0  llushr.o(.text)
    __aeabi_lasr                             0x0800061b   Thumb Code    38  llsshr.o(.text)
    _ll_sshift_r                             0x0800061b   Thumb Code     0  llsshr.o(.text)
    __I$use$fp                               0x08000641   Thumb Code     0  iusefp.o(.text)
    _double_round                            0x08000641   Thumb Code    26  depilogue.o(.text)
    _double_epilogue                         0x0800065b   Thumb Code   164  depilogue.o(.text)
    _drnd                                    0x08000701   Thumb Code   114  drnd.o(.text)
    __aeabi_d2ulz                            0x0800077d   Thumb Code    54  dfixul.o(.text)
    __aeabi_cdcmpeq                          0x080007bd   Thumb Code     0  cdcmple.o(.text)
    __aeabi_cdcmple                          0x080007bd   Thumb Code    38  cdcmple.o(.text)
    __scatterload                            0x080007e5   Thumb Code    28  init.o(.text)
    __scatterload_rt2                        0x080007e5   Thumb Code     0  init.o(.text)
    BSP_LED_Init                             0x08000809   Thumb Code   188  b-l072z-lrwan1.o(i.BSP_LED_Init)
    BSP_LED_On                               0x080008d1   Thumb Code    24  b-l072z-lrwan1.o(i.BSP_LED_On)
    BSP_LED_Toggle                           0x080008f1   Thumb Code    22  b-l072z-lrwan1.o(i.BSP_LED_Toggle)
    DBG_Init                                 0x08000911   Thumb Code    72  debug.o(i.DBG_Init)
    DelayMs                                  0x0800095d   Thumb Code    12  delay.o(i.DelayMs)
    EXTI0_1_IRQHandler                       0x08000969   Thumb Code    16  mlm32l0xx_it.o(i.EXTI0_1_IRQHandler)
    EXTI2_3_IRQHandler                       0x08000979   Thumb Code    16  mlm32l0xx_it.o(i.EXTI2_3_IRQHandler)
    EXTI4_15_IRQHandler                      0x08000989   Thumb Code    92  mlm32l0xx_it.o(i.EXTI4_15_IRQHandler)
    EnterStandbyMode_RTC_config              0x080009e5   Thumb Code    58  main.o(i.EnterStandbyMode_RTC_config)
    Error_Handler                            0x08000a29   Thumb Code     4  debug.o(i.Error_Handler)
    HAL_ADC_Init                             0x08000a61   Thumb Code   554  stm32l0xx_hal_adc.o(i.HAL_ADC_Init)
    HAL_ADC_MspInit                          0x08000c95   Thumb Code     2  stm32l0xx_hal_adc.o(i.HAL_ADC_MspInit)
    HAL_DBGMCU_DisableDBGSleepMode           0x08000c99   Thumb Code    14  stm32l0xx_hal.o(i.HAL_DBGMCU_DisableDBGSleepMode)
    HAL_DBGMCU_DisableDBGStandbyMode         0x08000cad   Thumb Code    14  stm32l0xx_hal.o(i.HAL_DBGMCU_DisableDBGStandbyMode)
    HAL_DBGMCU_DisableDBGStopMode            0x08000cc1   Thumb Code    14  stm32l0xx_hal.o(i.HAL_DBGMCU_DisableDBGStopMode)
    HAL_GPIO_EXTI_Callback                   0x08000cd5   Thumb Code    12  mlm32l0xx_hal_msp.o(i.HAL_GPIO_EXTI_Callback)
    HAL_GPIO_EXTI_IRQHandler                 0x08000ce1   Thumb Code    26  stm32l0xx_hal_gpio.o(i.HAL_GPIO_EXTI_IRQHandler)
    HAL_GPIO_Init                            0x08000d01   Thumb Code   472  stm32l0xx_hal_gpio.o(i.HAL_GPIO_Init)
    HAL_GPIO_TogglePin                       0x08000ef9   Thumb Code     8  stm32l0xx_hal_gpio.o(i.HAL_GPIO_TogglePin)
    HAL_GPIO_WritePin                        0x08000f01   Thumb Code    12  stm32l0xx_hal_gpio.o(i.HAL_GPIO_WritePin)
    HAL_GetTick                              0x08000f0d   Thumb Code     6  stm32l0xx_hal.o(i.HAL_GetTick)
    HAL_IncTick                              0x08000f19   Thumb Code    12  stm32l0xx_hal.o(i.HAL_IncTick)
    HAL_Init                                 0x08000f29   Thumb Code    28  stm32l0xx_hal.o(i.HAL_Init)
    HAL_InitTick                             0x08000f49   Thumb Code     6  mlm32l0xx_hal_msp.o(i.HAL_InitTick)
    HAL_MspInit                              0x08000f51   Thumb Code    32  mlm32l0xx_hal_msp.o(i.HAL_MspInit)
    HAL_NVIC_ClearPendingIRQ                 0x08000f75   Thumb Code    18  stm32l0xx_hal_cortex.o(i.HAL_NVIC_ClearPendingIRQ)
    HAL_NVIC_EnableIRQ                       0x08000f8d   Thumb Code    18  stm32l0xx_hal_cortex.o(i.HAL_NVIC_EnableIRQ)
    HAL_NVIC_SetPendingIRQ                   0x08000fa5   Thumb Code    18  stm32l0xx_hal_cortex.o(i.HAL_NVIC_SetPendingIRQ)
    HAL_NVIC_SetPriority                     0x08000fbd   Thumb Code    18  stm32l0xx_hal_cortex.o(i.HAL_NVIC_SetPriority)
    HAL_PWREx_EnableFastWakeUp               0x08000fd1   Thumb Code    16  stm32l0xx_hal_pwr_ex.o(i.HAL_PWREx_EnableFastWakeUp)
    HAL_PWREx_EnableUltraLowPower            0x08000fe5   Thumb Code    16  stm32l0xx_hal_pwr_ex.o(i.HAL_PWREx_EnableUltraLowPower)
    HAL_PWR_DisablePVD                       0x08000ff9   Thumb Code    14  stm32l0xx_hal_pwr.o(i.HAL_PWR_DisablePVD)
    HAL_PWR_EnterSTANDBYMode                 0x0800100d   Thumb Code    32  stm32l0xx_hal_pwr.o(i.HAL_PWR_EnterSTANDBYMode)
    HAL_RCCEx_GetPeriphCLKFreq               0x08001035   Thumb Code   854  stm32l0xx_hal_rcc_ex.o(i.HAL_RCCEx_GetPeriphCLKFreq)
    HAL_RCCEx_PeriphCLKConfig                0x080013b5   Thumb Code   610  stm32l0xx_hal_rcc_ex.o(i.HAL_RCCEx_PeriphCLKConfig)
    HAL_RCC_ClockConfig                      0x08001625   Thumb Code   482  stm32l0xx_hal_rcc.o(i.HAL_RCC_ClockConfig)
    HAL_RCC_GetHCLKFreq                      0x0800181d   Thumb Code     6  stm32l0xx_hal_rcc.o(i.HAL_RCC_GetHCLKFreq)
    HAL_RCC_GetPCLK1Freq                     0x08001829   Thumb Code    26  stm32l0xx_hal_rcc.o(i.HAL_RCC_GetPCLK1Freq)
    HAL_RCC_GetPCLK2Freq                     0x0800184d   Thumb Code    26  stm32l0xx_hal_rcc.o(i.HAL_RCC_GetPCLK2Freq)
    HAL_RCC_GetSysClockFreq                  0x08001871   Thumb Code   206  stm32l0xx_hal_rcc.o(i.HAL_RCC_GetSysClockFreq)
    HAL_RCC_OscConfig                        0x08001955   Thumb Code  1744  stm32l0xx_hal_rcc.o(i.HAL_RCC_OscConfig)
    HAL_RTCEx_EnableBypassShadow             0x08002035   Thumb Code    88  stm32l0xx_hal_rtc_ex.o(i.HAL_RTCEx_EnableBypassShadow)
    HAL_RTC_AlarmAEventCallback              0x0800208d   Thumb Code    10  mlm32l0xx_hal_msp.o(i.HAL_RTC_AlarmAEventCallback)
    HAL_RTC_DeactivateAlarm                  0x08002097   Thumb Code   274  stm32l0xx_hal_rtc.o(i.HAL_RTC_DeactivateAlarm)
    HAL_RTC_GetDate                          0x080021a9   Thumb Code    88  stm32l0xx_hal_rtc.o(i.HAL_RTC_GetDate)
    HAL_RTC_GetTime                          0x08002205   Thumb Code   104  stm32l0xx_hal_rtc.o(i.HAL_RTC_GetTime)
    HAL_RTC_Init                             0x08002271   Thumb Code   196  stm32l0xx_hal_rtc.o(i.HAL_RTC_Init)
    HAL_RTC_MspInit                          0x08002339   Thumb Code    90  mlm32l0xx_hal_msp.o(i.HAL_RTC_MspInit)
    HAL_RTC_SetAlarm_IT                      0x08002399   Thumb Code   590  stm32l0xx_hal_rtc.o(i.HAL_RTC_SetAlarm_IT)
    HAL_RTC_SetDate                          0x080025f5   Thumb Code   298  stm32l0xx_hal_rtc.o(i.HAL_RTC_SetDate)
    HAL_RTC_SetTime                          0x08002725   Thumb Code   336  stm32l0xx_hal_rtc.o(i.HAL_RTC_SetTime)
    HAL_RTC_WaitForSynchro                   0x08002879   Thumb Code    60  stm32l0xx_hal_rtc.o(i.HAL_RTC_WaitForSynchro)
    HAL_SPI_Init                             0x080028b5   Thumb Code   142  stm32l0xx_hal_spi.o(i.HAL_SPI_Init)
    HAL_SPI_MspInit                          0x08002943   Thumb Code     2  stm32l0xx_hal_spi.o(i.HAL_SPI_MspInit)
    HAL_SPI_TransmitReceive                  0x08002945   Thumb Code   894  stm32l0xx_hal_spi.o(i.HAL_SPI_TransmitReceive)
    HAL_UART_Init                            0x08002cc3   Thumb Code   130  stm32l0xx_hal_uart.o(i.HAL_UART_Init)
    HAL_UART_MspInit                         0x08002d45   Thumb Code    24  vcom.o(i.HAL_UART_MspInit)
    HAL_UART_Transmit                        0x08002d61   Thumb Code   240  stm32l0xx_hal_uart.o(i.HAL_UART_Transmit)
    HW_AdcInit                               0x08002e51   Thumb Code   130  mlm32l0xx_hw.o(i.HW_AdcInit)
    HW_GPIO_Init                             0x08002f29   Thumb Code   222  hw_gpio.o(i.HW_GPIO_Init)
    HW_GPIO_IrqHandler                       0x08003015   Thumb Code    32  hw_gpio.o(i.HW_GPIO_IrqHandler)
    HW_GPIO_SetIrq                           0x08003039   Thumb Code    62  hw_gpio.o(i.HW_GPIO_SetIrq)
    HW_GPIO_Write                            0x0800307d   Thumb Code    20  hw_gpio.o(i.HW_GPIO_Write)
    HW_Init                                  0x08003091   Thumb Code    64  mlm32l0xx_hw.o(i.HW_Init)
    HW_RTC_DelayMs                           0x080030d9   Thumb Code    38  hw_rtc.o(i.HW_RTC_DelayMs)
    HW_RTC_GetMinimumTimeout                 0x080031bd   Thumb Code     4  hw_rtc.o(i.HW_RTC_GetMinimumTimeout)
    HW_RTC_GetTimerContext                   0x080031c1   Thumb Code     6  hw_rtc.o(i.HW_RTC_GetTimerContext)
    HW_RTC_GetTimerElapsedTime               0x080031cd   Thumb Code    24  hw_rtc.o(i.HW_RTC_GetTimerElapsedTime)
    HW_RTC_GetTimerValue                     0x080031e9   Thumb Code    20  hw_rtc.o(i.HW_RTC_GetTimerValue)
    HW_RTC_Init                              0x080031fd   Thumb Code    30  hw_rtc.o(i.HW_RTC_Init)
    HW_RTC_IrqHandler                        0x08003221   Thumb Code    74  hw_rtc.o(i.HW_RTC_IrqHandler)
    HW_RTC_SetAlarm                          0x08003279   Thumb Code    64  hw_rtc.o(i.HW_RTC_SetAlarm)
    HW_RTC_SetTimerContext                   0x08003341   Thumb Code    24  hw_rtc.o(i.HW_RTC_SetTimerContext)
    HW_RTC_StopAlarm                         0x080034ed   Thumb Code    34  hw_rtc.o(i.HW_RTC_StopAlarm)
    HW_RTC_Tick2ms                           0x08003519   Thumb Code    24  hw_rtc.o(i.HW_RTC_Tick2ms)
    HW_RTC_ms2Tick                           0x08003531   Thumb Code    24  hw_rtc.o(i.HW_RTC_ms2Tick)
    HW_SPI_InOut                             0x08003549   Thumb Code    28  hw_spi.o(i.HW_SPI_InOut)
    HW_SPI_Init                              0x08003569   Thumb Code   176  hw_spi.o(i.HW_SPI_Init)
    HardFault_Handler                        0x0800362d   Thumb Code     6  mlm32l0xx_it.o(i.HardFault_Handler)
    LPM_GetMode                              0x08003635   Thumb Code    46  low_power_manager.o(i.LPM_GetMode)
    LPM_SetStopMode                          0x0800366d   Thumb Code    60  low_power_manager.o(i.LPM_SetStopMode)
    MSP_GetIRQn                              0x080036ad   Thumb Code   156  mlm32l0xx_hal_msp.o(i.MSP_GetIRQn)
    NMI_Handler                              0x08003749   Thumb Code     2  mlm32l0xx_it.o(i.NMI_Handler)
    OnRxDone                                 0x080037c5   Thumb Code    64  main.o(i.OnRxDone)
    OnRxError                                0x08003841   Thumb Code    22  main.o(i.OnRxError)
    OnRxTimeout                              0x0800386d   Thumb Code    16  main.o(i.OnRxTimeout)
    OnTxDone                                 0x08003885   Thumb Code    44  main.o(i.OnTxDone)
    OnTxTimeout                              0x080038c1   Thumb Code    28  main.o(i.OnTxTimeout)
    PendSV_Handler                           0x08003909   Thumb Code     2  mlm32l0xx_it.o(i.PendSV_Handler)
    RTC_Bcd2ToByte                           0x08003a81   Thumb Code    26  stm32l0xx_hal_rtc.o(i.RTC_Bcd2ToByte)
    RTC_ByteToBcd2                           0x08003a9b   Thumb Code    26  stm32l0xx_hal_rtc.o(i.RTC_ByteToBcd2)
    RTC_EnterInitMode                        0x08003ab5   Thumb Code    66  stm32l0xx_hal_rtc.o(i.RTC_EnterInitMode)
    RTC_IRQHandler                           0x08003af7   Thumb Code     8  mlm32l0xx_it.o(i.RTC_IRQHandler)
    RxChainCalibration                       0x08003b01   Thumb Code   168  sx1276.o(i.RxChainCalibration)
    SVC_Handler                              0x08003cc9   Thumb Code     2  mlm32l0xx_it.o(i.SVC_Handler)
    SX1276BoardInit                          0x08003d8d   Thumb Code     6  sx1276.o(i.SX1276BoardInit)
    SX1276CheckRfFrequency                   0x08003d99   Thumb Code     6  mlm32l07x01.o(i.SX1276CheckRfFrequency)
    SX1276GetPaSelect                        0x08003d9f   Thumb Code    14  mlm32l07x01.o(i.SX1276GetPaSelect)
    SX1276GetRadioWakeUpTime                 0x08003dad   Thumb Code    14  sx1276.o(i.SX1276GetRadioWakeUpTime)
    SX1276GetStatus                          0x08003dc1   Thumb Code     6  sx1276.o(i.SX1276GetStatus)
    SX1276GetTimeOnAir                       0x08003dcd   Thumb Code   630  sx1276.o(i.SX1276GetTimeOnAir)
    SX1276GetWakeTime                        0x0800406d   Thumb Code     4  mlm32l07x01.o(i.SX1276GetWakeTime)
    SX1276Init                               0x08004071   Thumb Code   136  sx1276.o(i.SX1276Init)
    SX1276IoDeInit                           0x0800411d   Thumb Code    66  mlm32l07x01.o(i.SX1276IoDeInit)
    SX1276IoInit                             0x0800416d   Thumb Code    98  mlm32l07x01.o(i.SX1276IoInit)
    SX1276IoIrqInit                          0x080041e1   Thumb Code    56  mlm32l07x01.o(i.SX1276IoIrqInit)
    SX1276IsChannelFree                      0x08004221   Thumb Code    92  sx1276.o(i.SX1276IsChannelFree)
    SX1276OnDio0Irq                          0x0800427d   Thumb Code   888  sx1276.o(i.SX1276OnDio0Irq)
    SX1276OnDio1Irq                          0x08004629   Thumb Code   370  sx1276.o(i.SX1276OnDio1Irq)
    SX1276OnDio2Irq                          0x080047b9   Thumb Code   304  sx1276.o(i.SX1276OnDio2Irq)
    SX1276OnDio3Irq                          0x080048f9   Thumb Code   114  sx1276.o(i.SX1276OnDio3Irq)
    SX1276OnDio4Irq                          0x08004975   Thumb Code    42  sx1276.o(i.SX1276OnDio4Irq)
    SX1276OnTimeoutIrq                       0x080049a5   Thumb Code   254  sx1276.o(i.SX1276OnTimeoutIrq)
    SX1276Random                             0x08004ab5   Thumb Code    64  sx1276.o(i.SX1276Random)
    SX1276Read                               0x08004af5   Thumb Code    20  sx1276.o(i.SX1276Read)
    SX1276ReadBuffer                         0x08004b09   Thumb Code    64  sx1276.o(i.SX1276ReadBuffer)
    SX1276ReadFifo                           0x08004b49   Thumb Code    18  sx1276.o(i.SX1276ReadFifo)
    SX1276ReadRssi                           0x08004b5d   Thumb Code    74  sx1276.o(i.SX1276ReadRssi)
    SX1276Reset                              0x08004bb1   Thumb Code    74  sx1276.o(i.SX1276Reset)
    SX1276Send                               0x08004c01   Thumb Code   296  sx1276.o(i.SX1276Send)
    SX1276SetAntSw                           0x08004d31   Thumb Code    98  mlm32l07x01.o(i.SX1276SetAntSw)
    SX1276SetAntSwLowPower                   0x08004d9d   Thumb Code    20  mlm32l07x01.o(i.SX1276SetAntSwLowPower)
    SX1276SetChannel                         0x08004db1   Thumb Code    74  sx1276.o(i.SX1276SetChannel)
    SX1276SetMaxPayloadLength                0x08004e09   Thumb Code    54  sx1276.o(i.SX1276SetMaxPayloadLength)
    SX1276SetModem                           0x08004e45   Thumb Code   148  sx1276.o(i.SX1276SetModem)
    SX1276SetOpMode                          0x08004edd   Thumb Code   106  sx1276.o(i.SX1276SetOpMode)
    SX1276SetPublicNetwork                   0x08004f4d   Thumb Code    38  sx1276.o(i.SX1276SetPublicNetwork)
    SX1276SetRfTxPower                       0x08004f79   Thumb Code   196  mlm32l07x01.o(i.SX1276SetRfTxPower)
    SX1276SetRx                              0x0800503d   Thumb Code   616  sx1276.o(i.SX1276SetRx)
    SX1276SetRxConfig                        0x080052cd   Thumb Code   772  sx1276.o(i.SX1276SetRxConfig)
    SX1276SetSleep                           0x080055e9   Thumb Code    28  sx1276.o(i.SX1276SetSleep)
    SX1276SetStby                            0x08005611   Thumb Code    28  sx1276.o(i.SX1276SetStby)
    SX1276SetTx                              0x08005639   Thumb Code   194  sx1276.o(i.SX1276SetTx)
    SX1276SetTxConfig                        0x08005705   Thumb Code   608  sx1276.o(i.SX1276SetTxConfig)
    SX1276SetTxContinuousWave                0x08005975   Thumb Code   126  sx1276.o(i.SX1276SetTxContinuousWave)
    SX1276SetXO                              0x080059fd   Thumb Code    44  mlm32l07x01.o(i.SX1276SetXO)
    SX1276StartCad                           0x08005a29   Thumb Code    66  sx1276.o(i.SX1276StartCad)
    SX1276Write                              0x08005a71   Thumb Code    16  sx1276.o(i.SX1276Write)
    SX1276WriteBuffer                        0x08005a81   Thumb Code    64  sx1276.o(i.SX1276WriteBuffer)
    SX1276WriteFifo                          0x08005ac1   Thumb Code    18  sx1276.o(i.SX1276WriteFifo)
    SysTick_Handler                          0x08005b21   Thumb Code     8  mlm32l0xx_it.o(i.SysTick_Handler)
    SystemClock_Config                       0x08005b29   Thumb Code   152  mlm32l0xx_hw.o(i.SystemClock_Config)
    SystemInit                               0x08005bc9   Thumb Code    88  system_stm32l0xx.o(i.SystemInit)
    TimerGetCurrentTime                      0x08005c51   Thumb Code    16  timeserver.o(i.TimerGetCurrentTime)
    TimerGetElapsedTime                      0x08005c61   Thumb Code    26  timeserver.o(i.TimerGetElapsedTime)
    TimerInit                                0x08005c7b   Thumb Code    14  timeserver.o(i.TimerInit)
    TimerIrqHandler                          0x08005ce1   Thumb Code   180  timeserver.o(i.TimerIrqHandler)
    TimerSetValue                            0x08005dc3   Thumb Code    40  timeserver.o(i.TimerSetValue)
    TimerStart                               0x08005ded   Thumb Code   114  timeserver.o(i.TimerStart)
    TimerStop                                0x08005e65   Thumb Code   180  timeserver.o(i.TimerStop)
    UART_AdvFeatureConfig                    0x08005f1d   Thumb Code   240  stm32l0xx_hal_uart.o(i.UART_AdvFeatureConfig)
    UART_CheckIdleState                      0x0800600d   Thumb Code   112  stm32l0xx_hal_uart.o(i.UART_CheckIdleState)
    UART_SetConfig                           0x08006081   Thumb Code   954  stm32l0xx_hal_uart.o(i.UART_SetConfig)
    UART_WaitOnFlagUntilTimeout              0x08006471   Thumb Code   112  stm32l0xx_hal_uart.o(i.UART_WaitOnFlagUntilTimeout)
    USART2_IRQHandler                        0x080064e1   Thumb Code     8  mlm32l0xx_it.o(i.USART2_IRQHandler)
    __0vsprintf                              0x080064e9   Thumb Code    30  printfa.o(i.__0vsprintf)
    __1vsprintf                              0x080064e9   Thumb Code     0  printfa.o(i.__0vsprintf)
    __2vsprintf                              0x080064e9   Thumb Code     0  printfa.o(i.__0vsprintf)
    __c89vsprintf                            0x080064e9   Thumb Code     0  printfa.o(i.__0vsprintf)
    vsprintf                                 0x080064e9   Thumb Code     0  printfa.o(i.__0vsprintf)
    __ARM_clz                                0x0800650d   Thumb Code    46  depilogue.o(i.__ARM_clz)
    __ARM_common_ll_muluu                    0x0800653b   Thumb Code    48  stm32l0xx_hal_uart.o(i.__ARM_common_ll_muluu)
    __ARM_common_switch8                     0x0800656b   Thumb Code    28  sx1276.o(i.__ARM_common_switch8)
    __scatterload_copy                       0x08006587   Thumb Code    14  handlers.o(i.__scatterload_copy)
    __scatterload_null                       0x08006595   Thumb Code     2  handlers.o(i.__scatterload_null)
    __scatterload_zeroinit                   0x08006597   Thumb Code    14  handlers.o(i.__scatterload_zeroinit)
    ceil                                     0x08006e65   Thumb Code   180  ceil.o(i.ceil)
    floor                                    0x08006f2d   Thumb Code   180  floor.o(i.floor)
    main                                     0x08006ff5   Thumb Code   788  main.o(i.main)
    memcpy1                                  0x08007419   Thumb Code    24  utilities.o(i.memcpy1)
    round                                    0x08007431   Thumb Code   142  round.o(i.round)
    vcom_Init                                0x080074cd   Thumb Code    60  vcom.o(i.vcom_Init)
    vcom_IoInit                              0x08007511   Thumb Code   120  vcom.o(i.vcom_IoInit)
    vcom_Print                               0x0800758d   Thumb Code   106  vcom.o(i.vcom_Print)
    vcom_Send                                0x08007609   Thumb Code   146  vcom.o(i.vcom_Send)
    RadioRegsInit                            0x080076a4   Data          48  sx1276.o(.constdata)
    FskBandwidths                            0x080076d4   Data         176  sx1276.o(.constdata)
    Radio                                    0x08007784   Data         104  mlm32l07x01.o(.constdata)
    LED_PIN                                  0x080077ec   Data           8  b-l072z-lrwan1.o(.constdata)
    BUTTON_PIN                               0x080077f4   Data           2  b-l072z-lrwan1.o(.constdata)
    BUTTON_IRQn                              0x080077f6   Data           1  b-l072z-lrwan1.o(.constdata)
    AHBPrescTable                            0x080077f7   Data          16  system_stm32l0xx.o(.constdata)
    APBPrescTable                            0x08007807   Data           8  system_stm32l0xx.o(.constdata)
    PLLMulTable                              0x0800780f   Data           9  system_stm32l0xx.o(.constdata)
    Region$$Table$$Base                      0x08007830   Number         0  anon$$obj.o(Region$$Table)
    Region$$Table$$Limit                     0x08007850   Number         0  anon$$obj.o(Region$$Table)
    DioIrq                                   0x20000008   Data          24  sx1276.o(.data)
    LED_PORT                                 0x20000038   Data          16  b-l072z-lrwan1.o(.data)
    BUTTON_PORT                              0x20000048   Data           4  b-l072z-lrwan1.o(.data)
    SystemCoreClock                          0x2000004c   Data           4  system_stm32l0xx.o(.data)
    uwTick                                   0x20000050   Data           4  stm32l0xx_hal.o(.data)
    isMaster                                 0x20000058   Data           1  main.o(.data)
    State                                    0x20000059   Data           1  main.o(.data)
    PongMsg                                  0x2000005a   Data           4  main.o(.data)
    BufferSize                               0x2000005e   Data           2  main.o(.data)
    StandByTime                              0x20000060   Data           4  main.o(.data)
    RssiValue                                0x20000064   Data           1  main.o(.data)
    SnrValue                                 0x20000065   Data           1  main.o(.data)
    iw                                       0x20000066   Data           2  vcom.o(.data)
    SX1276                                   0x20000178   Data         104  sx1276.o(.bss)
    TxTimeoutTimer                           0x200001e0   Data          20  sx1276.o(.bss)
    RxTimeoutTimer                           0x200001f4   Data          20  sx1276.o(.bss)
    RxTimeoutSyncWord                        0x20000208   Data          20  sx1276.o(.bss)
    Buffer                                   0x2000031c   Data          64  main.o(.bss)
    LoRaCMD                                  0x2000035c   Data          12  main.o(.bss)
    LoRaReport                               0x20000368   Data         132  main.o(.bss)
    RtcHandle                                0x200005ec   Data          36  low_power_manager.o(.bss)
    __initial_sp                             0x20000a10   Data           0  startup_stm32l072xx.o(STACK)



==============================================================================

Memory Map of the image

  Image Entry point : 0x080000c1

  Load Region LR_IROM1 (Base: 0x08000000, Size: 0x000078c8, Max: 0x00030000, ABSOLUTE)

    Execution Region ER_IROM1 (Exec base: 0x08000000, Load base: 0x08000000, Size: 0x00007850, Max: 0x00030000, ABSOLUTE)

    Exec Addr    Load Addr    Size         Type   Attr      Idx    E Section Name        Object

    0x08000000   0x08000000   0x000000c0   Data   RO         3762    RESET               startup_stm32l072xx.o
    0x080000c0   0x080000c0   0x00000000   Code   RO         4717  * .ARM.Collect$$$$00000000  mc_p.l(entry.o)
    0x080000c0   0x080000c0   0x00000004   Code   RO         4780    .ARM.Collect$$$$00000001  mc_p.l(entry2.o)
    0x080000c4   0x080000c4   0x00000004   Code   RO         4783    .ARM.Collect$$$$00000004  mc_p.l(entry5.o)
    0x080000c8   0x080000c8   0x00000000   Code   RO         4785    .ARM.Collect$$$$00000008  mc_p.l(entry7b.o)
    0x080000c8   0x080000c8   0x00000000   Code   RO         4787    .ARM.Collect$$$$0000000A  mc_p.l(entry8b.o)
    0x080000c8   0x080000c8   0x00000008   Code   RO         4788    .ARM.Collect$$$$0000000B  mc_p.l(entry9a.o)
    0x080000d0   0x080000d0   0x00000000   Code   RO         4790    .ARM.Collect$$$$0000000D  mc_p.l(entry10a.o)
    0x080000d0   0x080000d0   0x00000000   Code   RO         4792    .ARM.Collect$$$$0000000F  mc_p.l(entry11a.o)
    0x080000d0   0x080000d0   0x00000004   Code   RO         4781    .ARM.Collect$$$$00002712  mc_p.l(entry2.o)
    0x080000d4   0x080000d4   0x0000001c   Code   RO         3763    .text               startup_stm32l072xx.o
    0x080000f0   0x080000f0   0x0000002c   Code   RO         4720    .text               mc_p.l(uidiv.o)
    0x0800011c   0x0800011c   0x00000028   Code   RO         4722    .text               mc_p.l(idiv.o)
    0x08000144   0x08000144   0x00000060   Code   RO         4724    .text               mc_p.l(uldiv.o)
    0x080001a4   0x080001a4   0x00000024   Code   RO         4726    .text               mc_p.l(memcpya.o)
    0x080001c8   0x080001c8   0x00000024   Code   RO         4728    .text               mc_p.l(memseta.o)
    0x080001ec   0x080001ec   0x0000001e   Code   RO         4730    .text               mc_p.l(strncmp.o)
    0x0800020a   0x0800020a   0x00000002   PAD
    0x0800020c   0x0800020c   0x00000164   Code   RO         4764    .text               mf_p.l(dadd.o)
    0x08000370   0x08000370   0x000000d0   Code   RO         4766    .text               mf_p.l(dmul.o)
    0x08000440   0x08000440   0x000000f0   Code   RO         4768    .text               mf_p.l(ddiv.o)
    0x08000530   0x08000530   0x00000028   Code   RO         4770    .text               mf_p.l(dflti.o)
    0x08000558   0x08000558   0x0000001c   Code   RO         4772    .text               mf_p.l(dfltui.o)
    0x08000574   0x08000574   0x0000003c   Code   RO         4776    .text               mf_p.l(dfixui.o)
    0x080005b0   0x080005b0   0x00000028   Code   RO         4778    .text               mf_p.l(cdrcmple.o)
    0x080005d8   0x080005d8   0x00000020   Code   RO         4797    .text               mc_p.l(llshl.o)
    0x080005f8   0x080005f8   0x00000022   Code   RO         4799    .text               mc_p.l(llushr.o)
    0x0800061a   0x0800061a   0x00000026   Code   RO         4801    .text               mc_p.l(llsshr.o)
    0x08000640   0x08000640   0x00000000   Code   RO         4803    .text               mc_p.l(iusefp.o)
    0x08000640   0x08000640   0x000000be   Code   RO         4804    .text               mf_p.l(depilogue.o)
    0x080006fe   0x080006fe   0x00000002   PAD
    0x08000700   0x08000700   0x0000007c   Code   RO         4808    .text               mf_p.l(drnd.o)
    0x0800077c   0x0800077c   0x00000040   Code   RO         4810    .text               mf_p.l(dfixul.o)
    0x080007bc   0x080007bc   0x00000028   Code   RO         4812    .text               mf_p.l(cdcmple.o)
    0x080007e4   0x080007e4   0x00000024   Code   RO         4814    .text               mc_p.l(init.o)
    0x08000808   0x08000808   0x000000c8   Code   RO          528    i.BSP_LED_Init      b-l072z-lrwan1.o
    0x080008d0   0x080008d0   0x00000020   Code   RO          530    i.BSP_LED_On        b-l072z-lrwan1.o
    0x080008f0   0x080008f0   0x00000020   Code   RO          531    i.BSP_LED_Toggle    b-l072z-lrwan1.o
    0x08000910   0x08000910   0x0000004c   Code   RO         3769    i.DBG_Init          debug.o
    0x0800095c   0x0800095c   0x0000000c   Code   RO         4439    i.DelayMs           delay.o
    0x08000968   0x08000968   0x00000010   Code   RO         4244    i.EXTI0_1_IRQHandler  mlm32l0xx_it.o
    0x08000978   0x08000978   0x00000010   Code   RO         4245    i.EXTI2_3_IRQHandler  mlm32l0xx_it.o
    0x08000988   0x08000988   0x0000005c   Code   RO         4246    i.EXTI4_15_IRQHandler  mlm32l0xx_it.o
    0x080009e4   0x080009e4   0x00000044   Code   RO         4013    i.EnterStandbyMode_RTC_config  main.o
    0x08000a28   0x08000a28   0x00000004   Code   RO         3770    i.Error_Handler     debug.o
    0x08000a2c   0x08000a2c   0x00000034   Code   RO            3    i.GetFskBandwidthRegValue  sx1276.o
    0x08000a60   0x08000a60   0x00000234   Code   RO         1229    i.HAL_ADC_Init      stm32l0xx_hal_adc.o
    0x08000c94   0x08000c94   0x00000002   Code   RO         1232    i.HAL_ADC_MspInit   stm32l0xx_hal_adc.o
    0x08000c96   0x08000c96   0x00000002   PAD
    0x08000c98   0x08000c98   0x00000014   Code   RO         1620    i.HAL_DBGMCU_DisableDBGSleepMode  stm32l0xx_hal.o
    0x08000cac   0x08000cac   0x00000014   Code   RO         1621    i.HAL_DBGMCU_DisableDBGStandbyMode  stm32l0xx_hal.o
    0x08000cc0   0x08000cc0   0x00000014   Code   RO         1622    i.HAL_DBGMCU_DisableDBGStopMode  stm32l0xx_hal.o
    0x08000cd4   0x08000cd4   0x0000000c   Code   RO         4181    i.HAL_GPIO_EXTI_Callback  mlm32l0xx_hal_msp.o
    0x08000ce0   0x08000ce0   0x00000020   Code   RO         1887    i.HAL_GPIO_EXTI_IRQHandler  stm32l0xx_hal_gpio.o
    0x08000d00   0x08000d00   0x000001f8   Code   RO         1888    i.HAL_GPIO_Init     stm32l0xx_hal_gpio.o
    0x08000ef8   0x08000ef8   0x00000008   Code   RO         1891    i.HAL_GPIO_TogglePin  stm32l0xx_hal_gpio.o
    0x08000f00   0x08000f00   0x0000000c   Code   RO         1892    i.HAL_GPIO_WritePin  stm32l0xx_hal_gpio.o
    0x08000f0c   0x08000f0c   0x0000000c   Code   RO         1631    i.HAL_GetTick       stm32l0xx_hal.o
    0x08000f18   0x08000f18   0x00000010   Code   RO         1632    i.HAL_IncTick       stm32l0xx_hal.o
    0x08000f28   0x08000f28   0x00000020   Code   RO         1633    i.HAL_Init          stm32l0xx_hal.o
    0x08000f48   0x08000f48   0x00000006   Code   RO         4182    i.HAL_InitTick      mlm32l0xx_hal_msp.o
    0x08000f4e   0x08000f4e   0x00000002   PAD
    0x08000f50   0x08000f50   0x00000024   Code   RO         4183    i.HAL_MspInit       mlm32l0xx_hal_msp.o
    0x08000f74   0x08000f74   0x00000018   Code   RO         1786    i.HAL_NVIC_ClearPendingIRQ  stm32l0xx_hal_cortex.o
    0x08000f8c   0x08000f8c   0x00000018   Code   RO         1788    i.HAL_NVIC_EnableIRQ  stm32l0xx_hal_cortex.o
    0x08000fa4   0x08000fa4   0x00000018   Code   RO         1791    i.HAL_NVIC_SetPendingIRQ  stm32l0xx_hal_cortex.o
    0x08000fbc   0x08000fbc   0x00000012   Code   RO         1792    i.HAL_NVIC_SetPriority  stm32l0xx_hal_cortex.o
    0x08000fce   0x08000fce   0x00000002   PAD
    0x08000fd0   0x08000fd0   0x00000014   Code   RO         2145    i.HAL_PWREx_EnableFastWakeUp  stm32l0xx_hal_pwr_ex.o
    0x08000fe4   0x08000fe4   0x00000014   Code   RO         2147    i.HAL_PWREx_EnableUltraLowPower  stm32l0xx_hal_pwr_ex.o
    0x08000ff8   0x08000ff8   0x00000014   Code   RO         2029    i.HAL_PWR_DisablePVD  stm32l0xx_hal_pwr.o
    0x0800100c   0x0800100c   0x00000028   Code   RO         2039    i.HAL_PWR_EnterSTANDBYMode  stm32l0xx_hal_pwr.o
    0x08001034   0x08001034   0x00000380   Code   RO         1505    i.HAL_RCCEx_GetPeriphCLKFreq  stm32l0xx_hal_rcc_ex.o
    0x080013b4   0x080013b4   0x00000270   Code   RO         1508    i.HAL_RCCEx_PeriphCLKConfig  stm32l0xx_hal_rcc_ex.o
    0x08001624   0x08001624   0x000001f8   Code   RO         1394    i.HAL_RCC_ClockConfig  stm32l0xx_hal_rcc.o
    0x0800181c   0x0800181c   0x0000000c   Code   RO         1398    i.HAL_RCC_GetHCLKFreq  stm32l0xx_hal_rcc.o
    0x08001828   0x08001828   0x00000024   Code   RO         1400    i.HAL_RCC_GetPCLK1Freq  stm32l0xx_hal_rcc.o
    0x0800184c   0x0800184c   0x00000024   Code   RO         1401    i.HAL_RCC_GetPCLK2Freq  stm32l0xx_hal_rcc.o
    0x08001870   0x08001870   0x000000e4   Code   RO         1402    i.HAL_RCC_GetSysClockFreq  stm32l0xx_hal_rcc.o
    0x08001954   0x08001954   0x000006e0   Code   RO         1405    i.HAL_RCC_OscConfig  stm32l0xx_hal_rcc.o
    0x08002034   0x08002034   0x00000058   Code   RO         2341    i.HAL_RTCEx_EnableBypassShadow  stm32l0xx_hal_rtc_ex.o
    0x0800208c   0x0800208c   0x0000000a   Code   RO         4184    i.HAL_RTC_AlarmAEventCallback  mlm32l0xx_hal_msp.o
    0x08002096   0x08002096   0x00000112   Code   RO         2201    i.HAL_RTC_DeactivateAlarm  stm32l0xx_hal_rtc.o
    0x080021a8   0x080021a8   0x0000005c   Code   RO         2203    i.HAL_RTC_GetDate   stm32l0xx_hal_rtc.o
    0x08002204   0x08002204   0x0000006c   Code   RO         2205    i.HAL_RTC_GetTime   stm32l0xx_hal_rtc.o
    0x08002270   0x08002270   0x000000c8   Code   RO         2206    i.HAL_RTC_Init      stm32l0xx_hal_rtc.o
    0x08002338   0x08002338   0x00000060   Code   RO         4186    i.HAL_RTC_MspInit   mlm32l0xx_hal_msp.o
    0x08002398   0x08002398   0x0000025c   Code   RO         2211    i.HAL_RTC_SetAlarm_IT  stm32l0xx_hal_rtc.o
    0x080025f4   0x080025f4   0x00000130   Code   RO         2212    i.HAL_RTC_SetDate   stm32l0xx_hal_rtc.o
    0x08002724   0x08002724   0x00000154   Code   RO         2213    i.HAL_RTC_SetTime   stm32l0xx_hal_rtc.o
    0x08002878   0x08002878   0x0000003c   Code   RO         2214    i.HAL_RTC_WaitForSynchro  stm32l0xx_hal_rtc.o
    0x080028b4   0x080028b4   0x0000008e   Code   RO          636    i.HAL_SPI_Init      stm32l0xx_hal_spi.o
    0x08002942   0x08002942   0x00000002   Code   RO          638    i.HAL_SPI_MspInit   stm32l0xx_hal_spi.o
    0x08002944   0x08002944   0x0000037e   Code   RO          645    i.HAL_SPI_TransmitReceive  stm32l0xx_hal_spi.o
    0x08002cc2   0x08002cc2   0x00000082   Code   RO          889    i.HAL_UART_Init     stm32l0xx_hal_uart.o
    0x08002d44   0x08002d44   0x0000001c   Code   RO         4099    i.HAL_UART_MspInit  vcom.o
    0x08002d60   0x08002d60   0x000000f0   Code   RO          897    i.HAL_UART_Transmit  stm32l0xx_hal_uart.o
    0x08002e50   0x08002e50   0x00000094   Code   RO         4344    i.HW_AdcInit        mlm32l0xx_hw.o
    0x08002ee4   0x08002ee4   0x00000044   Code   RO         3795    i.HW_GPIO_GetBitPos  hw_gpio.o
    0x08002f28   0x08002f28   0x000000ec   Code   RO         3796    i.HW_GPIO_Init      hw_gpio.o
    0x08003014   0x08003014   0x00000024   Code   RO         3797    i.HW_GPIO_IrqHandler  hw_gpio.o
    0x08003038   0x08003038   0x00000044   Code   RO         3799    i.HW_GPIO_SetIrq    hw_gpio.o
    0x0800307c   0x0800307c   0x00000014   Code   RO         3800    i.HW_GPIO_Write     hw_gpio.o
    0x08003090   0x08003090   0x00000048   Code   RO         4350    i.HW_Init           mlm32l0xx_hw.o
    0x080030d8   0x080030d8   0x00000026   Code   RO         3846    i.HW_RTC_DelayMs    hw_rtc.o
    0x080030fe   0x080030fe   0x00000002   PAD
    0x08003100   0x08003100   0x000000bc   Code   RO         3847    i.HW_RTC_GetCalendarValue  hw_rtc.o
    0x080031bc   0x080031bc   0x00000004   Code   RO         3848    i.HW_RTC_GetMinimumTimeout  hw_rtc.o
    0x080031c0   0x080031c0   0x0000000c   Code   RO         3849    i.HW_RTC_GetTimerContext  hw_rtc.o
    0x080031cc   0x080031cc   0x0000001c   Code   RO         3850    i.HW_RTC_GetTimerElapsedTime  hw_rtc.o
    0x080031e8   0x080031e8   0x00000014   Code   RO         3851    i.HW_RTC_GetTimerValue  hw_rtc.o
    0x080031fc   0x080031fc   0x00000024   Code   RO         3852    i.HW_RTC_Init       hw_rtc.o
    0x08003220   0x08003220   0x00000058   Code   RO         3853    i.HW_RTC_IrqHandler  hw_rtc.o
    0x08003278   0x08003278   0x00000044   Code   RO         3854    i.HW_RTC_SetAlarm   hw_rtc.o
    0x080032bc   0x080032bc   0x00000014   Code   RO         3855    i.HW_RTC_SetAlarmConfig  hw_rtc.o
    0x080032d0   0x080032d0   0x00000070   Code   RO         3856    i.HW_RTC_SetConfig  hw_rtc.o
    0x08003340   0x08003340   0x0000001c   Code   RO         3857    i.HW_RTC_SetTimerContext  hw_rtc.o
    0x0800335c   0x0800335c   0x00000190   Code   RO         3858    i.HW_RTC_StartWakeUpAlarm  hw_rtc.o
    0x080034ec   0x080034ec   0x0000002c   Code   RO         3859    i.HW_RTC_StopAlarm  hw_rtc.o
    0x08003518   0x08003518   0x00000018   Code   RO         3860    i.HW_RTC_Tick2ms    hw_rtc.o
    0x08003530   0x08003530   0x00000018   Code   RO         3862    i.HW_RTC_ms2Tick    hw_rtc.o
    0x08003548   0x08003548   0x00000020   Code   RO         3975    i.HW_SPI_InOut      hw_spi.o
    0x08003568   0x08003568   0x000000c4   Code   RO         3976    i.HW_SPI_Init       hw_spi.o
    0x0800362c   0x0800362c   0x00000006   Code   RO         4247    i.HardFault_Handler  mlm32l0xx_it.o
    0x08003632   0x08003632   0x00000002   PAD
    0x08003634   0x08003634   0x00000038   Code   RO         4471    i.LPM_GetMode       low_power_manager.o
    0x0800366c   0x0800366c   0x00000040   Code   RO         4473    i.LPM_SetStopMode   low_power_manager.o
    0x080036ac   0x080036ac   0x0000009c   Code   RO         4187    i.MSP_GetIRQn       mlm32l0xx_hal_msp.o
    0x08003748   0x08003748   0x00000002   Code   RO         4249    i.NMI_Handler       mlm32l0xx_it.o
    0x0800374a   0x0800374a   0x00000002   PAD
    0x0800374c   0x0800374c   0x00000078   Code   RO         1798    i.NVIC_SetPriority  stm32l0xx_hal_cortex.o
    0x080037c4   0x080037c4   0x0000007c   Code   RO         4014    i.OnRxDone          main.o
    0x08003840   0x08003840   0x0000002c   Code   RO         4015    i.OnRxError         main.o
    0x0800386c   0x0800386c   0x00000018   Code   RO         4016    i.OnRxTimeout       main.o
    0x08003884   0x08003884   0x0000003c   Code   RO         4017    i.OnTxDone          main.o
    0x080038c0   0x080038c0   0x00000034   Code   RO         4018    i.OnTxTimeout       main.o
    0x080038f4   0x080038f4   0x00000014   Code   RO         4019    i.OnledEvent        main.o
    0x08003908   0x08003908   0x00000002   Code   RO         4250    i.PendSV_Handler    mlm32l0xx_it.o
    0x0800390a   0x0800390a   0x00000002   PAD
    0x0800390c   0x0800390c   0x00000098   Code   RO         1406    i.RCC_SetFlashLatencyFromMSIRange  stm32l0xx_hal_rcc.o
    0x080039a4   0x080039a4   0x000000dc   Code   RO         4020    i.RTC_AlarmConfig   main.o
    0x08003a80   0x08003a80   0x0000001a   Code   RO         2215    i.RTC_Bcd2ToByte    stm32l0xx_hal_rtc.o
    0x08003a9a   0x08003a9a   0x0000001a   Code   RO         2216    i.RTC_ByteToBcd2    stm32l0xx_hal_rtc.o
    0x08003ab4   0x08003ab4   0x00000042   Code   RO         2217    i.RTC_EnterInitMode  stm32l0xx_hal_rtc.o
    0x08003af6   0x08003af6   0x00000008   Code   RO         4251    i.RTC_IRQHandler    mlm32l0xx_it.o
    0x08003afe   0x08003afe   0x00000002   PAD
    0x08003b00   0x08003b00   0x000000b0   Code   RO            4    i.RxChainCalibration  sx1276.o
    0x08003bb0   0x08003bb0   0x00000118   Code   RO          666    i.SPI_WaitOnFlagUntilTimeout  stm32l0xx_hal_spi.o
    0x08003cc8   0x08003cc8   0x00000002   Code   RO         4252    i.SVC_Handler       mlm32l0xx_it.o
    0x08003cca   0x08003cca   0x00000002   PAD
    0x08003ccc   0x08003ccc   0x00000060   Code   RO          429    i.SX1276AntSwDeInit  mlm32l07x01.o
    0x08003d2c   0x08003d2c   0x00000060   Code   RO          430    i.SX1276AntSwInit   mlm32l07x01.o
    0x08003d8c   0x08003d8c   0x0000000c   Code   RO            5    i.SX1276BoardInit   sx1276.o
    0x08003d98   0x08003d98   0x00000006   Code   RO          431    i.SX1276CheckRfFrequency  mlm32l07x01.o
    0x08003d9e   0x08003d9e   0x0000000e   Code   RO          432    i.SX1276GetPaSelect  mlm32l07x01.o
    0x08003dac   0x08003dac   0x00000014   Code   RO            6    i.SX1276GetRadioWakeUpTime  sx1276.o
    0x08003dc0   0x08003dc0   0x0000000c   Code   RO            7    i.SX1276GetStatus   sx1276.o
    0x08003dcc   0x08003dcc   0x000002a0   Code   RO            8    i.SX1276GetTimeOnAir  sx1276.o
    0x0800406c   0x0800406c   0x00000004   Code   RO          433    i.SX1276GetWakeTime  mlm32l07x01.o
    0x08004070   0x08004070   0x000000ac   Code   RO            9    i.SX1276Init        sx1276.o
    0x0800411c   0x0800411c   0x00000050   Code   RO          434    i.SX1276IoDeInit    mlm32l07x01.o
    0x0800416c   0x0800416c   0x00000074   Code   RO          435    i.SX1276IoInit      mlm32l07x01.o
    0x080041e0   0x080041e0   0x00000040   Code   RO          436    i.SX1276IoIrqInit   mlm32l07x01.o
    0x08004220   0x08004220   0x0000005c   Code   RO           10    i.SX1276IsChannelFree  sx1276.o
    0x0800427c   0x0800427c   0x000003ac   Code   RO           11    i.SX1276OnDio0Irq   sx1276.o
    0x08004628   0x08004628   0x00000190   Code   RO           12    i.SX1276OnDio1Irq   sx1276.o
    0x080047b8   0x080047b8   0x00000140   Code   RO           13    i.SX1276OnDio2Irq   sx1276.o
    0x080048f8   0x080048f8   0x0000007c   Code   RO           14    i.SX1276OnDio3Irq   sx1276.o
    0x08004974   0x08004974   0x00000030   Code   RO           15    i.SX1276OnDio4Irq   sx1276.o
    0x080049a4   0x080049a4   0x00000110   Code   RO           17    i.SX1276OnTimeoutIrq  sx1276.o
    0x08004ab4   0x08004ab4   0x00000040   Code   RO           18    i.SX1276Random      sx1276.o
    0x08004af4   0x08004af4   0x00000014   Code   RO           19    i.SX1276Read        sx1276.o
    0x08004b08   0x08004b08   0x00000040   Code   RO           20    i.SX1276ReadBuffer  sx1276.o
    0x08004b48   0x08004b48   0x00000012   Code   RO           21    i.SX1276ReadFifo    sx1276.o
    0x08004b5a   0x08004b5a   0x00000002   PAD
    0x08004b5c   0x08004b5c   0x00000054   Code   RO           22    i.SX1276ReadRssi    sx1276.o
    0x08004bb0   0x08004bb0   0x00000050   Code   RO           23    i.SX1276Reset       sx1276.o
    0x08004c00   0x08004c00   0x00000130   Code   RO           24    i.SX1276Send        sx1276.o
    0x08004d30   0x08004d30   0x0000006c   Code   RO          437    i.SX1276SetAntSw    mlm32l07x01.o
    0x08004d9c   0x08004d9c   0x00000014   Code   RO          438    i.SX1276SetAntSwLowPower  mlm32l07x01.o
    0x08004db0   0x08004db0   0x00000058   Code   RO           25    i.SX1276SetChannel  sx1276.o
    0x08004e08   0x08004e08   0x0000003c   Code   RO           26    i.SX1276SetMaxPayloadLength  sx1276.o
    0x08004e44   0x08004e44   0x00000098   Code   RO           27    i.SX1276SetModem    sx1276.o
    0x08004edc   0x08004edc   0x00000070   Code   RO           28    i.SX1276SetOpMode   sx1276.o
    0x08004f4c   0x08004f4c   0x0000002c   Code   RO           29    i.SX1276SetPublicNetwork  sx1276.o
    0x08004f78   0x08004f78   0x000000c4   Code   RO          439    i.SX1276SetRfTxPower  mlm32l07x01.o
    0x0800503c   0x0800503c   0x00000290   Code   RO           30    i.SX1276SetRx       sx1276.o
    0x080052cc   0x080052cc   0x0000031c   Code   RO           31    i.SX1276SetRxConfig  sx1276.o
    0x080055e8   0x080055e8   0x00000028   Code   RO           32    i.SX1276SetSleep    sx1276.o
    0x08005610   0x08005610   0x00000028   Code   RO           33    i.SX1276SetStby     sx1276.o
    0x08005638   0x08005638   0x000000cc   Code   RO           34    i.SX1276SetTx       sx1276.o
    0x08005704   0x08005704   0x00000270   Code   RO           35    i.SX1276SetTxConfig  sx1276.o
    0x08005974   0x08005974   0x00000088   Code   RO           36    i.SX1276SetTxContinuousWave  sx1276.o
    0x080059fc   0x080059fc   0x0000002c   Code   RO          440    i.SX1276SetXO       mlm32l07x01.o
    0x08005a28   0x08005a28   0x00000048   Code   RO           37    i.SX1276StartCad    sx1276.o
    0x08005a70   0x08005a70   0x00000010   Code   RO           38    i.SX1276Write       sx1276.o
    0x08005a80   0x08005a80   0x00000040   Code   RO           39    i.SX1276WriteBuffer  sx1276.o
    0x08005ac0   0x08005ac0   0x00000012   Code   RO           40    i.SX1276WriteFifo   sx1276.o
    0x08005ad2   0x08005ad2   0x00000002   PAD
    0x08005ad4   0x08005ad4   0x0000004c   Code   RO         3977    i.SpiFrequency      hw_spi.o
    0x08005b20   0x08005b20   0x00000008   Code   RO         4253    i.SysTick_Handler   mlm32l0xx_it.o
    0x08005b28   0x08005b28   0x000000a0   Code   RO         4354    i.SystemClock_Config  mlm32l0xx_hw.o
    0x08005bc8   0x08005bc8   0x00000068   Code   RO          596    i.SystemInit        system_stm32l0xx.o
    0x08005c30   0x08005c30   0x00000020   Code   RO         4542    i.TimerExists       timeserver.o
    0x08005c50   0x08005c50   0x00000010   Code   RO         4543    i.TimerGetCurrentTime  timeserver.o
    0x08005c60   0x08005c60   0x0000001a   Code   RO         4544    i.TimerGetElapsedTime  timeserver.o
    0x08005c7a   0x08005c7a   0x0000000e   Code   RO         4545    i.TimerInit         timeserver.o
    0x08005c88   0x08005c88   0x00000024   Code   RO         4546    i.TimerInsertNewHeadTimer  timeserver.o
    0x08005cac   0x08005cac   0x00000034   Code   RO         4547    i.TimerInsertTimer  timeserver.o
    0x08005ce0   0x08005ce0   0x000000b8   Code   RO         4548    i.TimerIrqHandler   timeserver.o
    0x08005d98   0x08005d98   0x0000002a   Code   RO         4550    i.TimerSetTimeout   timeserver.o
    0x08005dc2   0x08005dc2   0x00000028   Code   RO         4551    i.TimerSetValue     timeserver.o
    0x08005dea   0x08005dea   0x00000002   PAD
    0x08005dec   0x08005dec   0x00000078   Code   RO         4552    i.TimerStart        timeserver.o
    0x08005e64   0x08005e64   0x000000b8   Code   RO         4553    i.TimerStop         timeserver.o
    0x08005f1c   0x08005f1c   0x000000f0   Code   RO          902    i.UART_AdvFeatureConfig  stm32l0xx_hal_uart.o
    0x0800600c   0x0800600c   0x00000074   Code   RO          903    i.UART_CheckIdleState  stm32l0xx_hal_uart.o
    0x08006080   0x08006080   0x000003f0   Code   RO          918    i.UART_SetConfig    stm32l0xx_hal_uart.o
    0x08006470   0x08006470   0x00000070   Code   RO          920    i.UART_WaitOnFlagUntilTimeout  stm32l0xx_hal_uart.o
    0x080064e0   0x080064e0   0x00000008   Code   RO         4254    i.USART2_IRQHandler  mlm32l0xx_it.o
    0x080064e8   0x080064e8   0x00000024   Code   RO         4741    i.__0vsprintf       mc_p.l(printfa.o)
    0x0800650c   0x0800650c   0x0000002e   Code   RO         4806    i.__ARM_clz         mf_p.l(depilogue.o)
    0x0800653a   0x0800653a   0x00000030   Code   RO         1205    i.__ARM_common_ll_muluu  stm32l0xx_hal_uart.o
    0x0800656a   0x0800656a   0x0000001c   Code   RO          245    i.__ARM_common_switch8  sx1276.o
    0x08006586   0x08006586   0x0000000e   Code   RO         4820    i.__scatterload_copy  mc_p.l(handlers.o)
    0x08006594   0x08006594   0x00000002   Code   RO         4821    i.__scatterload_null  mc_p.l(handlers.o)
    0x08006596   0x08006596   0x0000000e   Code   RO         4822    i.__scatterload_zeroinit  mc_p.l(handlers.o)
    0x080065a4   0x080065a4   0x00000006   Code   RO         4554    i.__set_PRIMASK     timeserver.o
    0x080065aa   0x080065aa   0x00000002   PAD
    0x080065ac   0x080065ac   0x00000174   Code   RO         4742    i._fp_digits        mc_p.l(printfa.o)
    0x08006720   0x08006720   0x000006ec   Code   RO         4743    i._printf_core      mc_p.l(printfa.o)
    0x08006e0c   0x08006e0c   0x00000020   Code   RO         4744    i._printf_post_padding  mc_p.l(printfa.o)
    0x08006e2c   0x08006e2c   0x0000002c   Code   RO         4745    i._printf_pre_padding  mc_p.l(printfa.o)
    0x08006e58   0x08006e58   0x0000000a   Code   RO         4747    i._sputc            mc_p.l(printfa.o)
    0x08006e62   0x08006e62   0x00000002   PAD
    0x08006e64   0x08006e64   0x000000c8   Code   RO         4708    i.ceil              m_ps.l(ceil.o)
    0x08006f2c   0x08006f2c   0x000000c8   Code   RO         4712    i.floor             m_ps.l(floor.o)
    0x08006ff4   0x08006ff4   0x00000424   Code   RO         4021    i.main              main.o
    0x08007418   0x08007418   0x00000018   Code   RO         4645    i.memcpy1           utilities.o
    0x08007430   0x08007430   0x0000009c   Code   RO         4715    i.round             m_ps.l(round.o)
    0x080074cc   0x080074cc   0x00000044   Code   RO         4101    i.vcom_Init         vcom.o
    0x08007510   0x08007510   0x0000007c   Code   RO         4103    i.vcom_IoInit       vcom.o
    0x0800758c   0x0800758c   0x0000007c   Code   RO         4104    i.vcom_Print        vcom.o
    0x08007608   0x08007608   0x0000009c   Code   RO         4105    i.vcom_Send         vcom.o
    0x080076a4   0x080076a4   0x000000e0   Data   RO           42    .constdata          sx1276.o
    0x08007784   0x08007784   0x00000068   Data   RO          441    .constdata          mlm32l07x01.o
    0x080077ec   0x080077ec   0x0000000b   Data   RO          535    .constdata          b-l072z-lrwan1.o
    0x080077f7   0x080077f7   0x00000021   Data   RO          597    .constdata          system_stm32l0xx.o
    0x08007818   0x08007818   0x00000018   Data   RO         3865    .constdata          hw_rtc.o
    0x08007830   0x08007830   0x00000020   Data   RO         4818    Region$$Table       anon$$obj.o


    Execution Region RW_IRAM1 (Exec base: 0x20000000, Load base: 0x08007850, Size: 0x00000a10, Max: 0x00005000, ABSOLUTE)

    Exec Addr    Load Addr    Size         Type   Attr      Idx    E Section Name        Object

    0x20000000   0x08007850   0x00000020   Data   RW           43    .data               sx1276.o
    0x20000020   0x08007870   0x00000018   Data   RW          442    .data               mlm32l07x01.o
    0x20000038   0x08007888   0x00000014   Data   RW          536    .data               b-l072z-lrwan1.o
    0x2000004c   0x0800789c   0x00000004   Data   RW          598    .data               system_stm32l0xx.o
    0x20000050   0x080078a0   0x00000004   Data   RW         1643    .data               stm32l0xx_hal.o
    0x20000054   0x080078a4   0x00000004   Data   RW         3866    .data               hw_rtc.o
    0x20000058   0x080078a8   0x0000000e   Data   RW         4024    .data               main.o
    0x20000066   0x080078b6   0x00000004   Data   RW         4108    .data               vcom.o
    0x2000006a   0x080078ba   0x00000002   Data   RW         4357    .data               mlm32l0xx_hw.o
    0x2000006c   0x080078bc   0x00000008   Data   RW         4475    .data               low_power_manager.o
    0x20000074   0x080078c4   0x00000004   Data   RW         4555    .data               timeserver.o
    0x20000078        -       0x000001a4   Zero   RW           41    .bss                sx1276.o
    0x2000021c        -       0x00000040   Zero   RW         3801    .bss                hw_gpio.o
    0x2000025c        -       0x00000068   Zero   RW         3864    .bss                hw_rtc.o
    0x200002c4        -       0x00000058   Zero   RW         3978    .bss                hw_spi.o
    0x2000031c        -       0x00000100   Zero   RW         4022    .bss                main.o
    0x2000041c        -       0x00000170   Zero   RW         4107    .bss                vcom.o
    0x2000058c        -       0x00000060   Zero   RW         4356    .bss                mlm32l0xx_hw.o
    0x200005ec        -       0x00000024   Zero   RW         4474    .bss                low_power_manager.o
    0x20000610        -       0x00000400   Zero   RW         3760    STACK               startup_stm32l072xx.o


==============================================================================

Image component sizes


      Code (inc. data)   RO Data    RW Data    ZI Data      Debug   Object Name

       264         30         11         20          0       3479   b-l072z-lrwan1.o
        80          4          0          0          0       1015   debug.o
        12          0          0          0          0        614   delay.o
       428         36          0          0         64       3969   hw_gpio.o
      1134        122         24          4        104      12247   hw_rtc.o
       304         28          0          0         88       2045   hw_spi.o
       120         14          0          8         36       2140   low_power_manager.o
      1672        466          0         14        256       7732   main.o
       844         58        104         24          0      14129   mlm32l07x01.o
       316         10          0          0          0       4024   mlm32l0xx_hal_msp.o
       380         34          0          2         96       2144   mlm32l0xx_hw.o
       160          0          0          0          0       4940   mlm32l0xx_it.o
        28          8        192          0       1024        648   startup_stm32l072xx.o
       120         32          0          4          0       4708   stm32l0xx_hal.o
       566         10          0          0          0       2157   stm32l0xx_hal_adc.o
       210         28          0          0          0      11820   stm32l0xx_hal_cortex.o
       556         38          0          0          0       3872   stm32l0xx_hal_gpio.o
        60         14          0          0          0       1180   stm32l0xx_hal_pwr.o
        40          8          0          0          0       1209   stm32l0xx_hal_pwr_ex.o
      2728        122          0          0          0       7584   stm32l0xx_hal_rcc.o
      1520         56          0          0          0       3253   stm32l0xx_hal_rcc_ex.o
      2100         36          0          0          0      10034   stm32l0xx_hal_rtc.o
        88          0          0          0          0       1255   stm32l0xx_hal_rtc_ex.o
      1318          0          0          0          0       4415   stm32l0xx_hal_spi.o
      1894         58          0          0          0       6409   stm32l0xx_hal_uart.o
      7096        444        224         32        420     441292   sx1276.o
       104         16         33          4          0       1695   system_stm32l0xx.o
       752         32          0          4          0       9911   timeserver.o
        24          0          0          0          0       1294   utilities.o
       500         44          0          4        368       6271   vcom.o

    ----------------------------------------------------------------------
     25444       1748        620        120       2456     577485   Object Totals
         0          0         32          0          0          0   (incl. Generated)
        26          0          0          0          0          0   (incl. Padding)

    ----------------------------------------------------------------------

      Code (inc. data)   RO Data    RW Data    ZI Data      Debug   Library Member Name

       200         20          0          0          0         76   ceil.o
       200         20          0          0          0         76   floor.o
       156         14          0          0          0         84   round.o
         0          0          0          0          0          0   entry.o
         0          0          0          0          0          0   entry10a.o
         0          0          0          0          0          0   entry11a.o
         8          4          0          0          0          0   entry2.o
         4          0          0          0          0          0   entry5.o
         0          0          0          0          0          0   entry7b.o
         0          0          0          0          0          0   entry8b.o
         8          4          0          0          0          0   entry9a.o
        30          0          0          0          0          0   handlers.o
        40          0          0          0          0         72   idiv.o
        36          8          0          0          0         68   init.o
         0          0          0          0          0          0   iusefp.o
        32          0          0          0          0         68   llshl.o
        38          0          0          0          0         68   llsshr.o
        34          0          0          0          0         68   llushr.o
        36          0          0          0          0         60   memcpya.o
        36          0          0          0          0        100   memseta.o
      2266         96          0          0          0        460   printfa.o
        30          0          0          0          0         72   strncmp.o
        44          0          0          0          0         72   uidiv.o
        96          0          0          0          0         84   uldiv.o
        40          2          0          0          0         68   cdcmple.o
        40          2          0          0          0         68   cdrcmple.o
       356          4          0          0          0        140   dadd.o
       240          6          0          0          0         84   ddiv.o
       236          0          0          0          0        216   depilogue.o
        60         10          0          0          0         68   dfixui.o
        64         10          0          0          0         68   dfixul.o
        40          6          0          0          0         68   dflti.o
        28          4          0          0          0         68   dfltui.o
       208          6          0          0          0         88   dmul.o
       124         10          0          0          0         76   drnd.o

    ----------------------------------------------------------------------
      4736        226          0          0          0       2440   Library Totals
         6          0          0          0          0          0   (incl. Padding)

    ----------------------------------------------------------------------

      Code (inc. data)   RO Data    RW Data    ZI Data      Debug   Library Name

       556         54          0          0          0        236   m_ps.l
      2738        112          0          0          0       1192   mc_p.l
      1436         60          0          0          0       1012   mf_p.l

    ----------------------------------------------------------------------
      4736        226          0          0          0       2440   Library Totals

    ----------------------------------------------------------------------

==============================================================================


      Code (inc. data)   RO Data    RW Data    ZI Data      Debug   

     30180       1974        620        120       2456     570953   Grand Totals
     30180       1974        620        120       2456     570953   ELF Image Totals
     30180       1974        620        120          0          0   ROM Totals

==============================================================================

    Total RO  Size (Code + RO Data)                30800 (  30.08kB)
    Total RW  Size (RW Data + ZI Data)              2576 (   2.52kB)
    Total ROM Size (Code + RO Data + RW Data)      30920 (  30.20kB)

==============================================================================

